******************************************************************************
            TI ARM Clang Linker Unix v3.2.2                    
******************************************************************************
>> Linked Sun Aug  4 01:58:15 2024

OUTPUT FILE NAME:   <sbl_emmc_linux.release.out>
ENTRY POINT SYMBOL: "_vectors_sbl"  address: 70000000


MEMORY CONFIGURATION

         name            origin    length      used     unused   attr    fill
----------------------  --------  ---------  --------  --------  ----  --------
  R5F_VECS              00000000   00000040  00000000  00000040  RWIX
  R5F_TCMA              00000040   00007fc0  00000000  00007fc0  RWIX
  R5F_TCMB0             41010000   00008000  00000000  00008000  RWIX
  MSRAM_VECS            70000000   00000100  00000040  000000c0  RWIX
  MSRAM_0               70000100   0006ff00  00013be0  0005c320  RWIX
  MSRAM_1               70070000   00010000  0000ef80  00001080  RWIX
  APPIMAGE              82000000   00800000  00800000  00000000  RWIX


SEGMENT ALLOCATION MAP

run origin  load origin   length   init length attrs members
----------  ----------- ---------- ----------- ----- -------
70000000    70000000    00000040   00000040    r-x
  70000000    70000000    00000040   00000040    r-x .vectors
70000100    70000100    0000f8a0   0000f8a0    r-x
  70000100    70000100    0000e960   0000e960    r-x .text
  7000ea60    7000ea60    00000760   00000760    r-x .text.hwi
  7000f1c0    7000f1c0    00000430   00000430    r-x .text.cache
  7000f5f0    7000f5f0    00000220   00000220    r-x .text.mpu
  7000f810    7000f810    00000190   00000190    r-x .text.boot
7000f9a0    7000f9a0    00002460   00002460    rw-
  7000f9a0    7000f9a0    00002460   00002460    rw- .data
70011e00    70011e00    00001ee0   00001ee0    r--
  70011e00    70011e00    00001ee0   00001ee0    r-- .rodata
70070000    70070000    0000db80   00000000    rw-
  70070000    70070000    00008000   00000000    rw- .sysmem
  70078000    70078000    00004000   00000000    rw- .stack
  7007c000    7007c000    00001b80   00000000    rw- .bss
7007db80    7007db80    00001400   00000000    r--
  7007db80    7007db80    00001000   00000000    r-- .irqstack
  7007eb80    7007eb80    00000100   00000000    r-- .fiqstack
  7007ec80    7007ec80    00000100   00000000    r-- .svcstack
  7007ed80    7007ed80    00000100   00000000    r-- .abortstack
  7007ee80    7007ee80    00000100   00000000    r-- .undefinedstack
82000000    82000000    00800000   00000000    rw-
  82000000    82000000    00800000   00000000    rw- .app


SECTION ALLOCATION MAP

 output                                  attributes/
section   page    origin      length       input sections
--------  ----  ----------  ----------   ----------------
.vectors   0    70000000    00000040     
                  70000000    00000040     nortos.am64x.r5f.ti-arm-clang.release.lib : HwiP_armv7r_vectors_nortos_sbl_asm.obj (.vectors)

.text      0    70000100    0000e960     
                  70000100    00000ddc     libc.a : _printfi.c.obj (.text:__TI_printfi_nofloat)
                  70000edc    00000cec     drivers.am64x.r5f.ti-arm-clang.release.lib : mmcsd_v0.obj (.text.MMCSD_open)
                  70001bc8    0000083c                                                : mmcsd_v0.obj (.text.MMCSD_transfer)
                  70002404    00000620                                                : sciclient_rm_irq.obj (.text.Sciclient_rmIrqFindRoute)
                  70002a24    00000598     nortos.am64x.r5f.ti-arm-clang.release.lib : printf.obj (.text._vsnprintf)
                  70002fbc    00000522     drivers.am64x.r5f.ti-arm-clang.release.lib : udma_ch.obj (.text.Udma_chDisable)
                  700034de    00000002     ti_dpl_config.obj (.text.Dpl_deinit)
                  700034e0    0000045e     drivers.am64x.r5f.ti-arm-clang.release.lib : udma_event.obj (.text.Udma_eventRegister)
                  7000393e    000003ec                                                : ddr.obj (.text.DDR_init)
                  70003d2a    000003a4                                                : udma_ch.obj (.text.Udma_chOpen)
                  700040ce    000003a0                                                : sciclient.obj (.text.Sciclient_service)
                  7000446e    00000002                                                : bootloader_mmcsd_raw.obj (.text.MMCSDRaw_imgClose)
                  70004470    00000398     nortos.am64x.r5f.ti-arm-clang.release.lib : printf.obj (.text._ftoa)
                  70004808    00000390     drivers.am64x.r5f.ti-arm-clang.release.lib : uart_v0.obj (.text.UART_open)
                  70004b98    00000310     nortos.am64x.r5f.ti-arm-clang.release.lib : printf.obj (.text._etoa)
                  70004ea8    0000028c     drivers.am64x.r5f.ti-arm-clang.release.lib : sciclient_rm_irq.obj (.text.Sciclient_rmIrqGetRoute)
                  70005134    00000280                                                : uart_v0_lld.obj (.text.UART_configInstance)
                  700053b4    00000250                                                : bootloader.obj (.text.Bootloader_verifyMulticoreImage)
                  70005604    0000021e                                                : bootloader_soc.obj (.text.Bootloader_socCpuResetRelease)
                  70005822    00000002                                                : mmcsd_v0.obj (.text.MMCSD_isr)
                  70005824    0000020e                                                : bootloader_soc.obj (.text.Bootloader_socCpuPowerOnResetR5f)
                  70005a32    00000002                                                : bootloader_mem.obj (.text.Mem_imgClose)
                  70005a34    0000020a                                                : udma_event.obj (.text.Udma_eventUnRegister)
                  70005c3e    00000206                                                : uart_v0_lld.obj (.text.UART_lld_controllerIsr)
                  70005e44    00000202                                                : sciclient_rm_irq.obj (.text.Sciclient_rmProgramInterruptRoute)
                  70006046    000001e4     main.obj (.text.main)
                  7000622a    000001d4     drivers.am64x.r5f.ti-arm-clang.release.lib : uart_dma_udma.obj (.text.UART_lld_dmaInit)
                  700063fe    00000002     nortos.am64x.r5f.ti-arm-clang.release.lib : SemaphoreP_nortos.obj (.text.SemaphoreP_destruct)
                  70006400    000001d0     libclang_rt.builtins.a : udivsi3.S.obj (.text.__udivsi3)
                  700065d0    000001ca     drivers.am64x.r5f.ti-arm-clang.release.lib : csl_bcdma.obj (.text.CSL_bcdmaChanOp)
                  7000679a    000001c0     nortos.am64x.r5f.ti-arm-clang.release.lib : TimerP.obj (.text.TimerP_setup)
                  7000695a    000001b0     drivers.am64x.r5f.ti-arm-clang.release.lib : sciclient_rm_irq.obj (.text.Sciclient_rmClearInterruptRoute)
                  70006b0a    00000198                                                : uart_v0_lld.obj (.text.UART_lld_initDma)
                  70006ca2    00000190                                                : udma_ring_common.obj (.text.Udma_ringAlloc)
                  70006e32    00000182                                                : uart_v0_lld.obj (.text.UART_lld_init)
                  70006fb4    00000174                                                : bootloader_soc.obj (.text.Bootloader_socCpuResetReleaseSelf)
                  70007128    00000152                                                : mmcsd_v0.obj (.text.MMCSD_phyConfigure)
                  7000727a    00000152     nortos.am64x.r5f.ti-arm-clang.release.lib : printf.obj (.text._ntoa_format)
                  700073cc    00000004     ti_board_open_close.obj (.text.Board_driversOpen)
                  700073d0    00000148     drivers.am64x.r5f.ti-arm-clang.release.lib : bootloader_profile.obj (.text.Bootloader_profilePrintProfileLog)
                  70007518    00000148                                                : csl_bcdma.obj (.text.CSL_bcdmaChanOpCfgChan)
                  70007660    00000144                                                : uart_v0.obj (.text.UART_close)
                  700077a4    00000142                                                : uart_v0_lld.obj (.text.UART_lld_write)
                  700078e6    00000140                                                : sciclient_rm_irq.obj (.text.Sciclient_rmIrqProgramRoute)
                  70007a26    0000013c                                                : udma_ch.obj (.text.Udma_chConfigRx)
                  70007b62    00000134                                                : sciclient_rm_irq.obj (.text.Sciclient_rmIrqDeleteRoute)
                  70007c96    00000132                                                : soc.obj (.text.SOC_moduleSetClockFrequency)
                  70007dc8    00000126                                                : soc.obj (.text.SOC_unlockAllMMR)
                  70007eee    00000120                                                : lpddr4_16bit.obj (.text.LPDDR4_CheckCtlInterrupt)
                  7000800e    00000118                                                : soc.obj (.text.SOC_moduleSetClockFrequencyWithParent)
                  70008126    00000002     nortos.am64x.r5f.ti-arm-clang.release.lib : TaskP_nortos.obj (.text.TaskP_yield)
                  70008128    00000118     libclang_rt.builtins.a : udivmoddi4.S.obj (.text)
                  70008240    00000112     drivers.am64x.r5f.ti-arm-clang.release.lib : bootloader_soc.obj (.text.Bootloader_socCpuPowerOnResetM4f)
                  70008352    00000112                                                : lpddr4_16bit.obj (.text.LPDDR4_AckCtlInterrupt)
                  70008464    00000102     nortos.am64x.r5f.ti-arm-clang.release.lib : ClockP_nortos_r5.obj (.text.ClockP_init)
                  70008566    000000fa     main.obj (.text.App_loadImages)
                  70008660    000000fa     drivers.am64x.r5f.ti-arm-clang.release.lib : udma_flow.obj (.text.Udma_flowConfig)
                  7000875a    000000f6                                                : mmcsd_v0.obj (.text.MMCSD_read)
                  70008850    000000f6                                                : udma_ch.obj (.text.Udma_chEnable)
                  70008946    000000f4                                                : uart_v0.obj (.text.UART_write)
                  70008a3a    000000f0                                                : udma_ch.obj (.text.Udma_chFreeResource)
                  70008b2a    000000e8                                                : bootloader.obj (.text.Bootloader_parseAndLoadLinuxAppImage)
                  70008c12    000000de                                                : bootloader_mmcsd_raw.obj (.text.Bootloader_MmcsdRaw_readFromOffset)
                  70008cf0    000000da                                                : udma_ch.obj (.text.Udma_chConfigTx)
                  70008dca    000000d4                                                : bootloader.obj (.text.Bootloader_rprcImageLoad)
                  70008e9e    000000d2                                                : bootloader.obj (.text.Bootloader_parseMultiCoreAppImage)
                  70008f70    000000c8                                                : sciclient.obj (.text.Sciclient_getVersionCheck)
                  70009038    000000c2                                                : uart_dma_udma.obj (.text.UART_lld_dmaWrite)
                  700090fa    000000be                                                : mmcsd_v0.obj (.text.MMCSD_halSetBusFreq)
                  700091b8    000000ba                                                : bootloader.obj (.text.Bootloader_loadSelfCpu)
                  70009272    000000ba                                                : csl_bcdma.obj (.text.CSL_bcdmaChanOpTeardownChan)
                  7000932c    000000b8                                                : uart_v0_lld.obj (.text.UART_divisorLatchWrite)
                  700093e4    000000b0     nortos.am64x.r5f.ti-arm-clang.release.lib : printf.obj (.text._ntoa_long_long)
                  70009494    000000aa     drivers.am64x.r5f.ti-arm-clang.release.lib : sciclient_rm_irq.obj (.text.Sciclient_rmIaValidateMapping)
                  7000953e    000000aa                                                : uart_v0_lld.obj (.text.UART_procLineStatusErr)
                  700095e8    000000aa                                                : udma_rm.obj (.text.Udma_rmAllocMappedRxCh)
                  70009692    000000aa                                                : udma_rm.obj (.text.Udma_rmAllocMappedTxCh)
                  7000973c    000000a8                                                : mmcsd_v0.obj (.text.MMCSD_enableBootPartition)
                  700097e4    000000a6                                                : udma_ch.obj (.text.Udma_chConfigPdma)
                  7000988a    000000a6     nortos.am64x.r5f.ti-arm-clang.release.lib : printf.obj (.text._out_rev)
                  70009930    000000a4     drivers.am64x.r5f.ti-arm-clang.release.lib : sciclient_pm.obj (.text.Sciclient_pmQueryModuleClkFreq)
                  700099d4    000000a2                                                : sciclient_rm_irq.obj (.text.Sciclient_rmIrInpIsFree)
                  70009a76    000000a0                                                : bootloader.obj (.text.Bootloader_getMsgLen)
                  70009b16    000000a0                                                : udma_rm.obj (.text.Udma_rmAllocBlkCopyCh)
                  70009bb6    000000a0                                                : udma_rm.obj (.text.Udma_rmAllocBlkCopyHcCh)
                  70009c56    000000a0                                                : udma_rm.obj (.text.Udma_rmAllocBlkCopyUhcCh)
                  70009cf6    000000a0                                                : udma_rm.obj (.text.Udma_rmAllocIrIntr)
                  70009d96    000000a0                                                : udma_rm.obj (.text.Udma_rmAllocRxCh)
                  70009e36    000000a0                                                : udma_rm.obj (.text.Udma_rmAllocRxHcCh)
                  70009ed6    000000a0                                                : udma_rm.obj (.text.Udma_rmAllocRxUhcCh)
                  70009f76    000000a0                                                : udma_rm.obj (.text.Udma_rmAllocTxCh)
                  7000a016    000000a0                                                : udma_rm.obj (.text.Udma_rmAllocTxHcCh)
                  7000a0b6    000000a0                                                : udma_rm.obj (.text.Udma_rmAllocTxUhcCh)
                  7000a156    0000009e                                                : uart_v0.obj (.text.UART_flushTxFifo)
                  7000a1f4    0000009a                                                : sciclient.obj (.text.Sciclient_init)
                  7000a28e    0000009a                                                : sciclient.obj (.text.Sciclient_sendMessage)
                  7000a328    0000009a                                                : uart_dma_udma.obj (.text.UART_udmaDeInitCh)
                  7000a3c2    00000096                                                : mmcsd_priv.obj (.text.MMCSD_parseCSDSd)
                  7000a458    00000096     nortos.am64x.r5f.ti-arm-clang.release.lib : SemaphoreP_nortos.obj (.text.SemaphoreP_pend)
                  7000a4ee    00000094     drivers.am64x.r5f.ti-arm-clang.release.lib : uart_v0.obj (.text.UART_init)
                  7000a582    00000094                                                : udma_rm.obj (.text.Udma_rmAllocMappedRing)
                  7000a616    00000092                                                : sciclient_pm.obj (.text.Sciclient_pmSetModuleClkFreq)
                  7000a6a8    00000092                                                : udma_ch.obj (.text.Udma_chClose)
                  7000a73a    00000092                                                : udma_event.obj (.text.Udma_eventFreeResource)
                  7000a7cc    00000090                                                : bootloader_soc.obj (.text.Bootloader_socCpuSetEntryPoint)
                  7000a85c    00000090                                                : mmcsd_priv.obj (.text.MMCSD_parseECSDEmmc)
                  7000a8ec    0000008e                                                : csl_pktdma.obj (.text.CSL_pktdmaTeardownChan)
                  7000a97a    0000008c     nortos.am64x.r5f.ti-arm-clang.release.lib : printf.obj (.text._ntoa_long)
                  7000aa06    0000008a     drivers.am64x.r5f.ti-arm-clang.release.lib : mmcsd_priv.obj (.text.MMCSD_parseCIDEmmc)
                  7000aa90    0000008a                                                : udma_event.obj (.text.Udma_eventIsrFxn)
                  7000ab1a    00000086                                                : uart_v0_lld.obj (.text.UART_lld_writeIntr)
                  7000aba0    00000082                                                : mmcsd_v0.obj (.text.MMCSD_init)
                  7000ac22    00000080                                                : sciclient_boardcfg.obj (.text.Sciclient_boardCfgPm)
                  7000aca2    0000007e                                                : bootloader_soc.obj (.text.Bootloader_socOpenFirewalls)
                  7000ad20    0000007c                                                : mmcsd_v0.obj (.text.MMCSD_phyInit)
                  7000ad9c    0000007c                                                : pinmux.obj (.text.Pinmux_config)
                  7000ae18    0000007c                                                : sciclient_procboot.obj (.text.Sciclient_procBootWaitProcessorState)
                  7000ae94    0000007c                                                : sciclient_rm_irq.obj (.text.Sciclient_rmIrOutpIsFree)
                  7000af10    0000007c                                                : sciclient_rm_irq.obj (.text.Sciclient_rmIrqGetNode)
                  7000af8c    0000007a                                                : sciclient_pm.obj (.text.Sciclient_pmGetModuleClkNumParent)
                  7000b006    00000078                                                : bootloader_soc.obj (.text.Bootloader_socCpuSetClock)
                  7000b07e    00000078                                                : bootloader_soc.obj (.text.Bootloader_socOpenFirewallRegion)
                  7000b0f6    00000002                                                : uart_v0.obj (.text.UART_lld_errorCallback)
                  7000b0f8    00000078     libc.a : snprintf.c.obj (.text.snprintf)
                  7000b170    00000076     drivers.am64x.r5f.ti-arm-clang.release.lib : mmcsd_priv.obj (.text.MMCSD_parseCIDSd)
                  7000b1e6    00000076                                                : uart_v0_lld.obj (.text.UART_lld_writeDma)
                  7000b25c    00000072                                                : bootloader_soc.obj (.text.Bootloader_socCpuPowerOnResetA53)
                  7000b2ce    00000072                                                : csl_pktdma.obj (.text.CSL_pktdmaAccessChanPeerReg)
                  7000b340    00000072                                                : udma_rm.obj (.text.Udma_rmAllocVintrBit)
                  7000b3b2    00000002                                                : udma_rm.obj (.text.Udma_rmFreeFreeRing)
                  7000b3b4    00000070                                                : bootloader_soc.obj (.text.Bootloader_socMemInitCpu)
                  7000b424    0000006e                                                : lpddr4.obj (.text.LPDDR4_Start)
                  7000b492    0000006e                                                : soc.obj (.text.SOC_moduleClockEnable)
                  7000b500    0000006e                                                : sciclient_pm.obj (.text.Sciclient_pmGetModuleState)
                  7000b56e    0000006c                                                : soc.obj (.text.SOC_isR5FDualCoreMode)
                  7000b5da    0000006c                                                : uart_dma_udma.obj (.text.UART_udmaHpdInit)
                  7000b646    00000002     nortos.am64x.r5f.ti-arm-clang.release.lib : printf.obj (.text._out_null)
                  7000b648    0000006c     libc.a : atoi.c.obj (.text.atoi)
                  7000b6b4    00000068     nortos.am64x.r5f.ti-arm-clang.release.lib : AddrTranslateP.obj (.text.AddrTranslateP_getLocalAddr)
                  7000b71c    00000068     drivers.am64x.r5f.ti-arm-clang.release.lib : bootloader_soc.obj (.text.Bootloader_socCpuRelease)
                  7000b784    00000066                                                : bootloader_soc.obj (.text.Bootloader_socCpuRequest)
                  7000b7ea    00000066                                                : sciclient_pm.obj (.text.Sciclient_pmGetModuleClkFreq)
                  7000b850    00000066                                                : sciclient_pm.obj (.text.Sciclient_pmGetModuleClkParent)
                  7000b8b6    00000064                                                : bootloader_soc.obj (.text.Bootloader_socCpuGetClock)
                  7000b91a    00000064                                                : csl_bcdma.obj (.text.CSL_bcdmaDoChanOp)
                  7000b97e    00000064                                                : csl_emif.obj (.text.CSL_emifConfig)
                  7000b9e2    00000064                                                : mmcsd_v0.obj (.text.MMCSD_isReadyForTransfer)
                  7000ba46    00000064                                                : sciclient_pm.obj (.text.Sciclient_pmModuleGetClkStatus)
                  7000baaa    00000064                                                : uart_v0_lld.obj (.text.UART_writeCancelNoCB)
                  7000bb0e    00000062                                                : sciclient.obj (.text.Sciclient_waitForBootNotification)
                  7000bb70    00000062                                                : udma_ring_common.obj (.text.Udma_ringFree)
                  7000bbd2    00000062                                                : udma_ring_common.obj (.text.Udma_ringQueueRaw)
                  7000bc34    00000060                                                : mmcsd_v0.obj (.text.MMCSD_cmdStatusPollingFxn)
                  7000bc94    00000060                                                : uart_v0_lld.obj (.text.UART_intrDisable)
                  7000bcf4    00000060                                                : udma_rm.obj (.text.Udma_rmFreeMappedRing)
                  7000bd54    00000060     nortos.am64x.r5f.ti-arm-clang.release.lib : PmuP_armv7r.obj (.text.pmu)
                  7000bdb4    0000005e     drivers.am64x.r5f.ti-arm-clang.release.lib : bootloader.obj (.text.Bootloader_runCpu)
                  7000be12    0000005e     nortos.am64x.r5f.ti-arm-clang.release.lib : ClockP_nortos.obj (.text.ClockP_timerTickIsr)
                  7000be70    0000005e     drivers.am64x.r5f.ti-arm-clang.release.lib : sciclient_pm.obj (.text.Sciclient_pmModuleClkRequest)
                  7000bece    0000005e                                                : sciclient_pm.obj (.text.Sciclient_pmSetModuleClkParent)
                  7000bf2c    0000005e                                                : uart_dma_udma.obj (.text.UART_lld_dmaDisableChannel)
                  7000bf8a    0000005c     main.obj (.text.App_runCpus)
                  7000bfe6    0000005c     drivers.am64x.r5f.ti-arm-clang.release.lib : csl_bcdma.obj (.text.CSL_bcdmaChanOpGetChanStats)
                  7000c042    0000005c                                                : csl_bcdma.obj (.text.CSL_bcdmaChanOpSetChanPause)
                  7000c09e    0000005c                                                : sciclient_procboot.obj (.text.Sciclient_procBootSetSequenceCtrl)
                  7000c0fa    0000005c                                                : uart_dma_udma.obj (.text.UART_udmaIsrRx)
                  7000c156    0000005c                                                : uart_dma_udma.obj (.text.UART_udmaIsrTx)
                  7000c1b2    0000005c                                                : udma_rm.obj (.text.Udma_rmAllocEvent)
                  7000c20e    0000005c                                                : udma_rm.obj (.text.Udma_rmAllocVintr)
                  7000c26a    0000005c     nortos.am64x.r5f.ti-arm-clang.release.lib : DebugP_log.obj (.text._DebugP_assert)
                  7000c2c6    0000005a     drivers.am64x.r5f.ti-arm-clang.release.lib : uart_v0_lld.obj (.text.UART_lld_flushTxFifo)
                  7000c320    0000005a                                                : udma_ring_common.obj (.text.Udma_ringDequeueRaw)
                  7000c37a    00000002     --HOLE-- [fill = 0]
                  7000c37c    00000058     libc.a : snprintf.c.obj (.text._outs)
                  7000c3d4    00000058            : autoinit.c.obj (.text:__TI_auto_init_nobinit_nopinit)
                  7000c42c    00000056     nortos.am64x.r5f.ti-arm-clang.release.lib : ClockP_nortos.obj (.text.ClockP_getTimeUsec)
                  7000c482    00000054     drivers.am64x.r5f.ti-arm-clang.release.lib : csl_bcdma.obj (.text.CSL_bcdmaChanOpDecChanStats)
                  7000c4d6    00000054                                                : csl_bcdma.obj (.text.CSL_bcdmaChanOpGetChanRT)
                  7000c52a    00000054                                                : csl_intaggr.obj (.text.CSL_intaggrIsIntrPending)
                  7000c57e    00000054                                                : mmcsd_v0.obj (.text.MMCSD_halSendCommand)
                  7000c5d2    00000054                                                : sciclient_rm.obj (.text.Sciclient_rmGetResourceRange)
                  7000c626    00000052                                                : mmcsd_v0.obj (.text.MMCSD_close)
                  7000c678    00000052                                                : sciclient_pm.obj (.text.Sciclient_pmSetModuleState)
                  7000c6ca    00000052                                                : uart_v0_lld.obj (.text.UART_lld_deInitDma)
                  7000c71c    00000050     nortos.am64x.r5f.ti-arm-clang.release.lib : ClockP_nortos.obj (.text.ClockP_addToList)
                  7000c76c    00000050                                               : ClockP_nortos.obj (.text.ClockP_construct)
                  7000c7bc    00000050     drivers.am64x.r5f.ti-arm-clang.release.lib : mmcsd_v0.obj (.text.MMCSD_halSetBusWidth)
                  7000c80c    00000050                                                : sciclient_soc_priv.obj (.text.Sciclient_getContext)
                  7000c85c    00000050                                                : udma_rm.obj (.text.Udma_rmFreeVintrBit)
                  7000c8ac    0000004e                                                : bootloader.obj (.text.Bootloader_findSeq)
                  7000c8fa    0000004e                                                : lpddr4.obj (.text.LPDDR4_ReadReg)
                  7000c948    0000004e                                                : sciclient_procboot.obj (.text.Sciclient_procBootReleaseProcessor)
                  7000c996    0000004e                                                : udma_soc.obj (.text.Udma_getMappedChRingAttributes)
                  7000c9e4    0000004c     ti_drivers_open_close.obj (.text.Drivers_mmcsdOpen)
                  7000ca30    0000004c     ti_drivers_open_close.obj (.text.Drivers_uartOpen)
                  7000ca7c    0000004c     ti_power_clock_config.obj (.text.Module_clockSetFrequency)
                  7000cac8    0000004c     drivers.am64x.r5f.ti-arm-clang.release.lib : udma_ch.obj (.text.UdmaChTxPrms_init)
                  7000cb14    0000004a                                                : csl_intaggr.obj (.text.CSL_intaggrClrIntr)
                  7000cb5e    0000004a                                                : pinmux.obj (.text.Pinmux_unlockMMR)
                  7000cba8    0000004a                                                : sciclient.obj (.text.Sciclient_triggerSecHandover)
                  7000cbf2    0000004a                                                : uart_v0_lld.obj (.text.UART_lld_deInit)
                  7000cc3c    0000004a                                                : udma_ch.obj (.text.UdmaChPrms_init)
                  7000cc86    0000004a                                                : udma_rm.obj (.text.Udma_rmFreeMappedRxCh)
                  7000ccd0    0000004a                                                : udma_rm.obj (.text.Udma_rmFreeMappedTxCh)
                  7000cd1a    00000048                                                : csl_bcdma.obj (.text.CSL_bcdmaChanOpSetChanRT)
                  7000cd62    00000048                                                : lpddr4.obj (.text.LPDDR4_WritePhyIndepConfig)
                  7000cdaa    00000048                                                : bootloader_mmcsd_raw.obj (.text.MMCSDRaw_imgRead)
                  7000cdf2    00000002     --HOLE-- [fill = 0]
                  7000cdf4    00000048     libc.a : memccpy.c.obj (.text.memccpy)
                  7000ce3c    00000046     drivers.am64x.r5f.ti-arm-clang.release.lib : lpddr4.obj (.text.LPDDR4_WritePhyConfig)
                  7000ce82    00000046                                                : mmcsd_priv.obj (.text.MMCSD_parseCSDEmmc)
                  7000cec8    00000046                                                : sciclient_pm.obj (.text.Sciclient_pmSetModuleRst_flags)
                  7000cf0e    00000046                                                : sciclient_procboot.obj (.text.Sciclient_procBootGetProcessorState)
                  7000cf54    00000046                                                : udma_ch.obj (.text.UdmaChRxPrms_init)
                  7000cf9a    00000044                                                : bootloader.obj (.text.Bootloader_loadCpu)
                  7000cfde    00000044                                                : sciclient_pm.obj (.text.Sciclient_pmSetModuleRst)
                  7000d022    00000044                                                : sciclient_procboot.obj (.text.Sciclient_procBootRequestProcessor)
                  7000d066    00000044                                                : sciclient_rm_irq.obj (.text.Sciclient_rmIrqUnmappedVintRouteDelete)
                  7000d0aa    00000042                                                : ddr_soc.obj (.text.DDR_socEnableVttRegulator)
                  7000d0ec    00000042                                                : sciclient_procboot.obj (.text.Sciclient_procBootAuthAndStart)
                  7000d12e    00000042                                                : sciclient_rm.obj (.text.Sciclient_rmIrqReleaseRaw)
                  7000d170    00000042                                                : sciclient_rm.obj (.text.Sciclient_rmPsilPair)
                  7000d1b2    00000042                                                : sciclient_rm.obj (.text.Sciclient_rmPsilUnpair)
                  7000d1f4    00000040                                                : bootloader_profile.obj (.text.Bootloader_profileReset)
                  7000d234    00000040                                                : csl_bcdma.obj (.text.CSL_bcdmaChanOpSetBurstSize)
                  7000d274    00000040     nortos.am64x.r5f.ti-arm-clang.release.lib : ClockP_nortos.obj (.text.ClockP_stop)
                  7000d2b4    00000040     ti_dpl_config.obj (.text.Dpl_init)
                  7000d2f4    00000040     drivers.am64x.r5f.ti-arm-clang.release.lib : lpddr4.obj (.text.LPDDR4_WriteCtlConfig)
                  7000d334    00000040                                                : sciclient_firewall.obj (.text.Sciclient_firewallChangeOwnerInfo)
                  7000d374    00000040                                                : sciclient_firewall.obj (.text.Sciclient_firewallSetRegion)
                  7000d3b4    00000040                                                : sciclient_rm.obj (.text.Sciclient_rmIrqSetRaw)
                  7000d3f4    00000040                                                : sciclient_rm.obj (.text.Sciclient_rmRingCfg)
                  7000d434    00000040                                                : sciclient_rm.obj (.text.Sciclient_rmUdmapFlowCfg)
                  7000d474    00000040                                                : sciclient_rm.obj (.text.Sciclient_rmUdmapFlowSizeThreshCfg)
                  7000d4b4    00000040                                                : sciclient_rm.obj (.text.Sciclient_rmUdmapRxChCfg)
                  7000d4f4    00000040                                                : sciclient_rm.obj (.text.Sciclient_rmUdmapTxChCfg)
                  7000d534    00000040     nortos.am64x.r5f.ti-arm-clang.release.lib : SemaphoreP_nortos.obj (.text.SemaphoreP_constructBinary)
                  7000d574    00000040     drivers.am64x.r5f.ti-arm-clang.release.lib : udma_rm.obj (.text.Udma_rmFreeBlkCopyCh)
                  7000d5b4    00000040                                                : udma_rm.obj (.text.Udma_rmFreeBlkCopyHcCh)
                  7000d5f4    00000040                                                : udma_rm.obj (.text.Udma_rmFreeBlkCopyUhcCh)
                  7000d634    00000040                                                : udma_rm.obj (.text.Udma_rmFreeEvent)
                  7000d674    00000040                                                : udma_rm.obj (.text.Udma_rmFreeIrIntr)
                  7000d6b4    00000040                                                : udma_rm.obj (.text.Udma_rmFreeRxCh)
                  7000d6f4    00000040                                                : udma_rm.obj (.text.Udma_rmFreeRxHcCh)
                  7000d734    00000040                                                : udma_rm.obj (.text.Udma_rmFreeRxUhcCh)
                  7000d774    00000040                                                : udma_rm.obj (.text.Udma_rmFreeTxCh)
                  7000d7b4    00000040                                                : udma_rm.obj (.text.Udma_rmFreeTxHcCh)
                  7000d7f4    00000040                                                : udma_rm.obj (.text.Udma_rmFreeTxUhcCh)
                  7000d834    00000040                                                : udma_rm.obj (.text.Udma_rmFreeVintr)
                  7000d874    0000003e                                                : bootloader.obj (.text.Bootloader_open)
                  7000d8b2    0000003e                                                : soc.obj (.text.SOC_controlModuleUnlockMMR)
                  7000d8f0    0000003e                                                : sciclient_procboot.obj (.text.Sciclient_procBootSetProcessorCfg)
                  7000d92e    0000003e     nortos.am64x.r5f.ti-arm-clang.release.lib : SemaphoreP_nortos.obj (.text.SemaphoreP_constructMutex)
                  7000d96c    0000003e     drivers.am64x.r5f.ti-arm-clang.release.lib : udma_flow.obj (.text.UdmaFlowPrms_init)
                  7000d9aa    0000003e                                                : udma_ring_common.obj (.text.Udma_ringFlushRaw)
                  7000d9e8    0000003c                                                : bootloader_soc.obj (.text.Bootloader_socTranslateSectionAddr)
                  7000da24    0000003c                                                : csl_bcdma.obj (.text.CSL_bcdmaGetCfg)
                  7000da60    0000003c                                                : mmcsd_v0.obj (.text.MMCSD_halBusPower)
                  7000da9c    0000003a     nortos.am64x.r5f.ti-arm-clang.release.lib : ClockP_nortos.obj (.text.ClockP_destruct)
                  7000dad6    0000003a                                               : DebugP_uartLogWriter.obj (.text.DebugP_uartLogWriterPutChar)
                  7000db10    0000003a     drivers.am64x.r5f.ti-arm-clang.release.lib : mmcsd_v0.obj (.text.MMCSD_halSoftReset)
                  7000db4a    0000003a     ti_drivers_config.obj (.text.System_init)
                  7000db84    00000038     drivers.am64x.r5f.ti-arm-clang.release.lib : bootloader_soc.obj (.text.Bootloader_socEnableICSSCores)
                  7000dbbc    00000038                                                : sciclient.obj (.text.Sciclient_getCurrentContext)
                  7000dbf4    00000038     nortos.am64x.r5f.ti-arm-clang.release.lib : DebugP_nortos.obj (.text._DebugP_logZone)
                  7000dc2c    00000034                                               : ClockP_nortos.obj (.text.ClockP_start)
                  7000dc60    00000034     drivers.am64x.r5f.ti-arm-clang.release.lib : lpddr4_16bit.obj (.text.LPDDR4_EnablePIInitiator)
                  7000dc94    00000034                                                : lpddr4.obj (.text.LPDDR4_PollCtlIrq)
                  7000dcc8    00000032                                                : bootloader.obj (.text.Bootloader_BootImageInfo_init)
                  7000dcfa    00000032     nortos.am64x.r5f.ti-arm-clang.release.lib : ClockP_nortos.obj (.text.ClockP_usleep)
                  7000dd2c    00000032                                               : SemaphoreP_nortos.obj (.text.SemaphoreP_post)
                  7000dd5e    00000032     drivers.am64x.r5f.ti-arm-clang.release.lib : udma_event.obj (.text.UdmaEventPrms_init)
                  7000dd90    00000030     libc.a : snprintf.c.obj (.text._outc)
                  7000ddc0    00000030     nortos.am64x.r5f.ti-arm-clang.release.lib : PmuP_armv7r_asm.obj (.text.pmu)
                  7000ddf0    0000002e     main.obj (.text.App_loadLinuxImages)
                  7000de1e    0000002e     drivers.am64x.r5f.ti-arm-clang.release.lib : ddr.obj (.text.DDR_setFreq)
                  7000de4c    0000002e                                                : mmcsd_v0.obj (.text.MMCSD_getHandle)
                  7000de7a    0000002e                                                : mmcsd_v0.obj (.text.MMCSD_halLinesResetCmd)
                  7000dea8    0000002e                                                : mmcsd_v0.obj (.text.MMCSD_halLinesResetDat)
                  7000ded6    0000002e     ti_power_clock_config.obj (.text.Module_clockDisable)
                  7000df04    0000002e     ti_power_clock_config.obj (.text.Module_clockEnable)
                  7000df32    0000002e     drivers.am64x.r5f.ti-arm-clang.release.lib : uart_v0.obj (.text.UART_getHandle)
                  7000df60    0000002e                                                : udma_ring_common.obj (.text.UdmaRingPrms_init)
                  7000df8e    0000002c                                                : bootloader_soc.obj (.text.Bootloader_socIsMCUResetIsoEnabled)
                  7000dfba    0000002c                                                : csl_pktdma.obj (.text.CSL_pktdmaGetRxRT)
                  7000dfe6    0000002c                                                : csl_pktdma.obj (.text.CSL_pktdmaGetTxRT)
                  7000e012    0000002c     ti_drivers_open_close.obj (.text.Drivers_close)
                  7000e03e    0000002c     drivers.am64x.r5f.ti-arm-clang.release.lib : mmcsd_v0.obj (.text.MMCSD_halCmdResponseGet)
                  7000e06a    0000002a                                                : gtc.obj (.text.GTC_setFID)
                  7000e094    0000002a                                                : soc.obj (.text.SOC_controlModuleLockMMR)
                  7000e0be    0000002a                                                : uart_v0.obj (.text.UART_lld_writeCompleteCallback)
                  7000e0e8    00000028                                                : bootloader_soc.obj (.text.Bootloader_socCpuPowerOnReset)
                  7000e110    00000028     nortos.am64x.r5f.ti-arm-clang.release.lib : ClockP_nortos.obj (.text.ClockP_sleepTicks)
                  7000e138    00000028     drivers.am64x.r5f.ti-arm-clang.release.lib : bootloader_mem.obj (.text.Mem_imgRead)
                  7000e160    00000028                                                : uart_v0.obj (.text.UART_lld_readCompleteCallback)
                  7000e188    00000028                                                : udma_ch.obj (.text.Udma_chGetCqRingHandle)
                  7000e1b0    00000028                                                : udma_ch.obj (.text.Udma_chGetFqRingHandle)
                  7000e1d8    00000026                                                : bootloader_profile.obj (.text.Bootloader_profileAddProfilePoint)
                  7000e1fe    00000026                                                : mmcsd_priv.obj (.text.MMCSD_parseSCRSd)
                  7000e224    00000024                                                : bootloader.obj (.text.Bootloader_runSelfCpuWithLinux)
                  7000e248    00000024                                                : csl_bcdma.obj (.text.CSL_bcdmaGetChanPeerReg)
                  7000e26c    00000024     ti_drivers_config.obj (.text.System_deinit)
                  7000e290    00000024     libclang_rt.builtins.a : aeabi_uldivmod.S.obj (.text.__aeabi_uldivmod)
                  7000e2b4    00000024     nortos.am64x.r5f.ti-arm-clang.release.lib : printf.obj (.text.vprintf_)
                  7000e2d8    00000022     drivers.am64x.r5f.ti-arm-clang.release.lib : bootloader_soc.obj (.text.Bootloader_socIsR5FSSDual)
                  7000e2fa    00000022                                                : csl_bcdma.obj (.text.CSL_bcdmaSetChanPeerReg)
                  7000e31c    00000022     ti_pinmux_config.obj (.text.Pinmux_init)
                  7000e33e    00000022     drivers.am64x.r5f.ti-arm-clang.release.lib : uart_dma_udma.obj (.text.UART_lld_dmaDeInit)
                  7000e360    00000022                                                : udma_utils.obj (.text.Udma_virtToPhyFxn)
                  7000e382    00000020                                                : bootloader_soc.obj (.text.Bootloader_enableMCUPLL)
                  7000e3a2    00000020                                                : bootloader_soc.obj (.text.Bootloader_socGetCoreName)
                  7000e3c2    00000020                                                : bootloader_soc.obj (.text.Bootloader_socRprcToCslCoreId)
                  7000e3e2    00000020                                                : csl_pktdma.obj (.text.CSL_pktdmaSetRxRT)
                  7000e402    00000020                                                : csl_pktdma.obj (.text.CSL_pktdmaSetTxRT)
                  7000e422    00000020     nortos.am64x.r5f.ti-arm-clang.release.lib : DebugP_log.obj (.text.DebugP_logZoneEnable)
                  7000e442    00000020     drivers.am64x.r5f.ti-arm-clang.release.lib : gtc.obj (.text.GTC_init)
                  7000e462    00000020                                                : soc.obj (.text.SOC_getSelfCpuClk)
                  7000e482    00000020     nortos.am64x.r5f.ti-arm-clang.release.lib : TimerP.obj (.text.TimerP_Params_init)
                  7000e4a2    00000002     --HOLE-- [fill = 0]
                  7000e4a4    00000020     libc.a : wcslen.c.obj (.text.wcslen)
                  7000e4c4    0000001e     drivers.am64x.r5f.ti-arm-clang.release.lib : csl_bcdma.obj (.text.CSL_bcdmaTeardownRxChan)
                  7000e4e2    0000001e                                                : csl_bcdma.obj (.text.CSL_bcdmaTeardownTxChan)
                  7000e500    0000001e                                                : uart_v0_lld.obj (.text.UART_spaceAvail)
                  7000e51e    0000001c                                                : bootloader_soc.obj (.text.Bootloader_socCpuGetClkDefault)
                  7000e53a    0000001c                                                : bootloader_soc.obj (.text.Bootloader_socIsAuthRequired)
                  7000e556    0000001c                                                : csl_pktdma.obj (.text.CSL_pktdmaGetChanPeerReg)
                  7000e572    0000001c                                                : csl_pktdma.obj (.text.CSL_pktdmaSetChanPeerReg)
                  7000e58e    0000001c                                                : bootloader_mem.obj (.text.Mem_imgOpen)
                  7000e5aa    0000001c                                                : soc.obj (.text.SOC_getCoreName)
                  7000e5c6    0000001c                                                : udma_utils.obj (.text.UdmaUtils_getRingMemSize)
                  7000e5e2    0000001c                                                : udma_event.obj (.text.Udma_eventGetGlobalHandle)
                  7000e5fe    00000002     --HOLE-- [fill = 0]
                  7000e600    0000001c     libc.a : _printfi.c.obj (.text.strlen)
                  7000e61c    0000001c            : memcpy32.S.obj (.text:TI_memcpy_small)
                  7000e638    0000001a     drivers.am64x.r5f.ti-arm-clang.release.lib : bootloader_profile.obj (.text.Bootloader_profileAddCore)
                  7000e652    0000001a                                                : csl_emif.obj (.text.CSL_emifDisableECC)
                  7000e66c    0000001a                                                : csl_emif.obj (.text.CSL_emifEnableECC)
                  7000e686    0000001a                                                : mmcsd_v0.obj (.text.MMCSD_deinit)
                  7000e6a0    0000001a                                                : uart_v0.obj (.text.UART_deinit)
                  7000e6ba    00000018                                                : bootloader_soc.obj (.text.Bootloader_socAuthImage)
                  7000e6d2    00000018                                                : lpddr4.obj (.text.LPDDR4_Init)
                  7000e6ea    00000018                                                : sciclient_soc_priv.obj (.text.Sciclient_getDevId)
                  7000e702    00000002     --HOLE-- [fill = 0]
                  7000e704    00000018     libc.a : memset32.S.obj (.text:TI_memset_small)
                  7000e71c    00000016     drivers.am64x.r5f.ti-arm-clang.release.lib : bootloader_soc.obj (.text.Bootloader_socNotifyFirewallOpen)
                  7000e732    00000016                                                : csl_bcdma.obj (.text.CSL_bcdmaGetRxRT)
                  7000e748    00000016                                                : csl_bcdma.obj (.text.CSL_bcdmaGetTxRT)
                  7000e75e    00000016                                                : csl_bcdma.obj (.text.CSL_bcdmaSetRxRT)
                  7000e774    00000016                                                : csl_bcdma.obj (.text.CSL_bcdmaSetTxRT)
                  7000e78a    00000014     nortos.am64x.r5f.ti-arm-clang.release.lib : ClockP_nortos.obj (.text.ClockP_usecToTicks)
                  7000e79e    00000014     drivers.am64x.r5f.ti-arm-clang.release.lib : mmcsd_v0.obj (.text.MMCSD_getBlockSize)
                  7000e7b2    00000014                                                : sciclient_fmwSecureProxyMap.obj (.text.Sciclient_getRxThreadId)
                  7000e7c6    00000014                                                : sciclient_fmwSecureProxyMap.obj (.text.Sciclient_getTxThreadId)
                  7000e7da    00000014                                                : uart_v0.obj (.text.UART_Transaction_init)
                  7000e7ee    00000012                                                : csl_emif.obj (.text.CSL_emifClearECCInterruptStatus)
                  7000e800    00000012                                                : csl_emif.obj (.text.CSL_emifEnableECCInterrupts)
                  7000e812    00000012     nortos.am64x.r5f.ti-arm-clang.release.lib : TimerP.obj (.text.TimerP_clearOverflowInt)
                  7000e824    00000012     drivers.am64x.r5f.ti-arm-clang.release.lib : uart_v0_lld.obj (.text.UART_operatingModeSelect)
                  7000e836    00000010                                                : bootloader.obj (.text.Bootloader_close)
                  7000e846    00000010                                                : bootloader.obj (.text.Bootloader_isCorePresent)
                  7000e856    00000010                                                : csl_lcdma_ringacc.obj (.text.CSL_lcdma_ringaccIsTeardownComplete)
                  7000e866    00000010                                                : lpddr4.obj (.text.LPDDR4_Probe)
                  7000e876    00000010                                                : sciclient_rm.obj (.text.Sciclient_rmIrqRelease)
                  7000e886    00000010                                                : uart_v0_lld.obj (.text.UART_intr2Disable)
                  7000e896    00000010                                                : udma_rm.obj (.text.Udma_rmTranslateCoreIntrInput)
                  7000e8a6    00000010                                                : udma_rm.obj (.text.Udma_rmTranslateIrOutput)
                  7000e8b6    00000002     --HOLE-- [fill = 0]
                  7000e8b8    00000010     libclang_rt.builtins.a : aeabi_memset.S.obj (.text.__aeabi_memset)
                  7000e8c8    0000000e     drivers.am64x.r5f.ti-arm-clang.release.lib : bootloader_soc.obj (.text.Bootloader_socGetBootSeqOid)
                  7000e8d6    0000000e     ti_drivers_open_close.obj (.text.Drivers_open)
                  7000e8e4    0000000e     ti_power_clock_config.obj (.text.PowerClock_init)
                  7000e8f2    0000000c     drivers.am64x.r5f.ti-arm-clang.release.lib : bootloader.obj (.text.Bootloader_Params_init)
                  7000e8fe    0000000c     nortos.am64x.r5f.ti-arm-clang.release.lib : ClockP_nortos.obj (.text.ClockP_getTicks)
                  7000e90a    0000000c                                               : DebugP_uartLogWriter.obj (.text.DebugP_uartSetDrvIndex)
                  7000e916    0000000c     drivers.am64x.r5f.ti-arm-clang.release.lib : sciclient.obj (.text.Sciclient_getSelfDevIdCore)
                  7000e922    0000000c                                                : udma_ch.obj (.text.UdmaChPdmaPrms_init)
                  7000e92e    00000002     --HOLE-- [fill = 0]
                  7000e930    0000000c     libc.a : aeabi_portable.c.obj (.text.__aeabi_errno_addr)
                  7000e93c    0000000c     libclang_rt.builtins.a : aeabi_memset.S.obj (.text.__aeabi_memclr)
                  7000e948    0000000a     drivers.am64x.r5f.ti-arm-clang.release.lib : bootloader_soc.obj (.text.Bootloader_socGetSBLMem)
                  7000e952    0000000a                                                : csl_sec_proxy.obj (.text.CSL_secProxyGetDataAddr)
                  7000e95c    0000000a     nortos.am64x.r5f.ti-arm-clang.release.lib : ClockP_nortos.obj (.text.ClockP_Params_init)
                  7000e966    0000000a                                               : ClockP_nortos.obj (.text.ClockP_isActive)
                  7000e970    0000000a     drivers.am64x.r5f.ti-arm-clang.release.lib : bootloader_mmcsd_raw.obj (.text.MMCSDRaw_imgOpen)
                  7000e97a    0000000a     nortos.am64x.r5f.ti-arm-clang.release.lib : TimerP.obj (.text.TimerP_start)
                  7000e984    0000000a     drivers.am64x.r5f.ti-arm-clang.release.lib : uart_v0_lld.obj (.text.UART_lld_Transaction_deInit)
                  7000e98e    0000000a                                                : uart_dma_soc.obj (.text.UART_udmapSetReturnPolicy)
                  7000e998    00000008                                                : bootloader_mmcsd_raw.obj (.text.MMCSDRaw_imgSeek)
                  7000e9a0    00000008                                                : soc.obj (.text.SOC_moduleGetClockFrequency)
                  7000e9a8    00000008                                                : udma_ring_common.obj (.text.Udma_ringGetForwardRingOcc)
                  7000e9b0    00000008                                                : udma_ring_common.obj (.text.Udma_ringGetReverseRingOcc)
                  7000e9b8    00000008     nortos.am64x.r5f.ti-arm-clang.release.lib : printf.obj (.text._out_char)
                  7000e9c0    00000008     libc.a : exit.c.obj (.text:abort)
                  7000e9c8    00000006     drivers.am64x.r5f.ti-arm-clang.release.lib : csl_pktdma.obj (.text.CSL_pktdmaTeardownRxChan)
                  7000e9ce    00000006                                                : csl_pktdma.obj (.text.CSL_pktdmaTeardownTxChan)
                  7000e9d4    00000006                                                : soc.obj (.text.SOC_getFlashDataBaseAddr)
                  7000e9da    00000006                                                : udma_rm.obj (.text.Udma_rmAllocFreeRing)
                  7000e9e0    00000004                                                : bootloader_soc.obj (.text.Bootloader_socWaitForFWBoot)
                  7000e9e4    00000004                                                : lpddr4.obj (.text.CPS_UncachedRead32)
                  7000e9e8    00000004                                                : lpddr4.obj (.text.CPS_UncachedWrite32)
                  7000e9ec    00000004     nortos.am64x.r5f.ti-arm-clang.release.lib : ClockP_nortos_r5.obj (.text.ClockP_getTimerCount)
                  7000e9f0    00000004                                               : ClockP_nortos_r5.obj (.text.ClockP_timerClearOverflowInt)
                  7000e9f4    00000004     drivers.am64x.r5f.ti-arm-clang.release.lib : bootloader_mmcsd_raw.obj (.text.MMCSDRaw_imgGetCurOffset)
                  7000e9f8    00000004                                                : bootloader_mem.obj (.text.Mem_imgGetCurOffset)
                  7000e9fc    00000004                                                : bootloader_mem.obj (.text.Mem_imgSeek)
                  7000ea00    00000004     ti_power_clock_config.obj (.text.PowerClock_deinit)
                  7000ea04    00000004     drivers.am64x.r5f.ti-arm-clang.release.lib : sciclient.obj (.text.Sciclient_deinit)
                  7000ea08    00000004                                                : sciclient_rm.obj (.text.Sciclient_rmIrqSet)
                  7000ea0c    00000004     nortos.am64x.r5f.ti-arm-clang.release.lib : TimerP.obj (.text.TimerP_getCount)
                  7000ea10    00000004                                               : TimerP.obj (.text.TimerP_getReloadCount)
                  7000ea14    00000004     drivers.am64x.r5f.ti-arm-clang.release.lib : udma_utils.obj (.text.Udma_defaultVirtToPhyFxn)
                  7000ea18    00000004     libclang_rt.builtins.a : aeabi_memcpy.S.obj (.text.__aeabi_memcpy)
                  7000ea1c    00000004     ti_dpl_config.obj (.text.putchar_)
                  7000ea20    00000004     libclang_rt.builtins.a : aeabi_div0.c.obj (.text.__aeabi_idiv0)
                  7000ea24    00000008                            : aeabi_memcpy.S.obj (.tramp.__aeabi_memcpy.1)
                  7000ea2c    00000004     --HOLE-- [fill = 0]
                  7000ea30    00000004                            : aeabi_div0.c.obj (.text.__aeabi_ldiv0)
                  7000ea34    00000008     nortos.am64x.r5f.ti-arm-clang.release.lib : HwiP_armv7r_asm.obj (.tramp.HwiP_enable.1)
                  7000ea3c    00000008                                               : HwiP_armv7r_asm.obj (.tramp.HwiP_restore.1)
                  7000ea44    00000008                                               : PmuP_armv7r_asm.obj (.tramp.PmuP_enableCounters.1)
                  7000ea4c    00000008                                               : CacheP_armv7r_asm.obj (.tramp.CacheP_wb.1)
                  7000ea54    0000000c     --HOLE-- [fill = 0]

.text.hwi 
*          0    7000ea60    00000760     
                  7000ea60    00000408     nortos.am64x.r5f.ti-arm-clang.release.lib : HwiP_armv7r_vim.obj (.text.hwi)
                  7000ee68    00000220                                               : HwiP_armv7r_handlers_nortos.obj (.text.hwi)
                  7000f088    000000c0                                               : HwiP_armv7r_handlers_nortos_asm.obj (.text.hwi)
                  7000f148    00000070                                               : HwiP_armv7r_asm.obj (.text.hwi)
                  7000f1b8    00000008                                               : HwiP_armv7r_asm.obj (.tramp.HwiP_enableFIQ.1)

.text.cache 
*          0    7000f1c0    00000430     
                  7000f1c0    00000340     nortos.am64x.r5f.ti-arm-clang.release.lib : CacheP_armv7r_asm.obj (.text.cache)
                  7000f500    000000d8                                               : CacheP_armv7r.obj (.text.cache)
                  7000f5d8    00000008                                               : CacheP_armv7r_asm.obj (.tramp.CacheP_invL1d.1)
                  7000f5e0    00000008                                               : CacheP_armv7r_asm.obj (.tramp.CacheP_enableL1p.1)
                  7000f5e8    00000008                                               : HwiP_armv7r_asm.obj (.tramp.HwiP_restore.2)

.text.mpu 
*          0    7000f5f0    00000220     
                  7000f5f0    00000192     nortos.am64x.r5f.ti-arm-clang.release.lib : MpuP_armv7r.obj (.text.mpu)
                  7000f782    00000002     --HOLE-- [fill = 0]
                  7000f784    00000078                                               : MpuP_armv7r_asm.obj (.text.mpu)
                  7000f7fc    00000008                                               : HwiP_armv7r_asm.obj (.tramp.HwiP_restore.3)
                  7000f804    00000008                                               : MpuP_armv7r_asm.obj (.tramp.MpuP_isEnableAsm.1)
                  7000f80c    00000004     --HOLE-- [fill = 0]

.text.boot 
*          0    7000f810    00000190     
                  7000f810    00000144     nortos.am64x.r5f.ti-arm-clang.release.lib : boot_armv7r_asm.obj (.text.boot)
                  7000f954    0000001e                                               : DebugP_log.obj (.text.boot)
                  7000f972    0000001c                                               : boot_armv7r.obj (.text.boot)
                  7000f98e    0000000e     ti_dpl_config.obj (.text.boot)
                  7000f99c    00000004     --HOLE-- [fill = 0]

.data      0    7000f9a0    00002460     
                  7000f9a0    000007ec     ti_drivers_config.obj (.data.DDRSS_phyReg)
                  7001018c    0000069c     ti_drivers_config.obj (.data.DDRSS_ctlReg)
                  70010828    00000564     ti_drivers_config.obj (.data.DDRSS_phyIndepReg)
                  70010d8c    000003f6     ti_drivers_config.obj (.data.DDRSS_phyRegNum)
                  70011182    0000034e     ti_drivers_config.obj (.data.DDRSS_ctlRegNum)
                  700114d0    000002b2     ti_drivers_config.obj (.data.DDRSS_phyIndepRegNum)
                  70011782    00000001     drivers.am64x.r5f.ti-arm-clang.release.lib : sciclient.obj (.data.gSecHeaderSizeWords)
                  70011783    00000001     --HOLE-- [fill = 0]
                  70011784    000000c4                                                : bootloader_soc.obj (.data.gAddrTranslateInfo)
                  70011848    000000b8                                                : sciclient_irq_rm.obj (.data.vint_usage_count_DMASS0_INTAGGR_0)
                  70011900    000000a8                                                : bootloader_soc.obj (.data.gCoreBootInfo)
                  700119a8    0000009c                                                : mmcsd_v0.obj (.data.gMmcsdDrvObj)
                  70011a44    0000009c                                                : uart_v0.obj (.data.gUartDrvObj)
                  70011ae0    00000060                                                : sciclient_irq_rm.obj (.data.gRmIrInstances)
                  70011b40    00000058     ti_drivers_open_close.obj (.data.gUartParams)
                  70011b98    00000050     ti_drivers_config.obj (.data.gBootloaderConfig)
                  70011be8    0000003c     ti_drivers_config.obj (.data.gMmcsdAttrs)
                  70011c24    00000004     libc.a : aeabi_portable.c.obj (.data.__aeabi_errno)
                  70011c28    00000038     ti_drivers_config.obj (.data.gDdrParams)
                  70011c60    00000030     ti_power_clock_config.obj (.data.gSocModulesClockFrequency)
                  70011c90    00000020     drivers.am64x.r5f.ti-arm-clang.release.lib : sciclient_irq_rm.obj (.data.gRmIaInstances)
                  70011cb0    00000020                                                : sciclient_soc_priv.obj (.data.gSciclientSecProxyCfg)
                  70011cd0    00000018                                                : bootloader_mem.obj (.data.gBootloaderMemFxns)
                  70011ce8    00000018                                                : bootloader_mmcsd_raw.obj (.data.gBootloaderMmcsdFxns)
                  70011d00    00000018     ti_dpl_config.obj (.data.gClockConfig)
                  70011d18    00000018     ti_pinmux_config.obj (.data.gPinMuxMainDomainCfg)
                  70011d30    00000014     drivers.am64x.r5f.ti-arm-clang.release.lib : bootloader_soc.obj (.data.gResMemSection)
                  70011d44    00000014     ti_power_clock_config.obj (.data.gSocModules)
                  70011d58    00000014     drivers.am64x.r5f.ti-arm-clang.release.lib : sciclient_irq_rm.obj (.data.rom_usage_DMASS0_INTAGGR_0)
                  70011d6c    00000004     ti_drivers_config.obj (.data.gBootloaderConfigNum)
                  70011d70    0000000c     nortos.am64x.r5f.ti-arm-clang.release.lib : AddrTranslateP.obj (.data.gAddrTranslateConfig)
                  70011d7c    0000000c     ti_drivers_config.obj (.data.gBootloader0Args)
                  70011d88    0000000c     ti_drivers_config.obj (.data.gBootloader1Args)
                  70011d94    00000008     ti_drivers_config.obj (.data.gMemBootloaderArgs)
                  70011d9c    00000008     ti_drivers_config.obj (.data.gMmcsdConfig)
                  70011da4    00000008     ti_drivers_open_close.obj (.data.gMmcsdParams)
                  70011dac    00000008     ti_pinmux_config.obj (.data.gPinMuxMcuDomainCfg)
                  70011db4    00000008     ti_drivers_config.obj (.data.gUartAttrs)
                  70011dbc    00000008     ti_drivers_config.obj (.data.gUartConfig)
                  70011dc4    00000004     nortos.am64x.r5f.ti-arm-clang.release.lib : DebugP_log.obj (.data.gDebugLogZone)
                  70011dc8    00000008                                               : PmuP_armv7r.obj (.data.pmu)
                  70011dd0    00000004                                               : DebugP_uartLogWriter.obj (.data.gDebugP_uartDrvIndex)
                  70011dd4    00000004     ti_dpl_config.obj (.data.gHwiConfig)
                  70011dd8    00000004     ti_drivers_config.obj (.data.gMmcsdConfigNum)
                  70011ddc    00000004     drivers.am64x.r5f.ti-arm-clang.release.lib : sciclient.obj (.data.gSciclientHandle.0)
                  70011de0    00000004                                                : sciclient.obj (.data.gSciclientHandle.2)
                  70011de4    00000004                                                : sciclient.obj (.data.gSciclientHandle.3)
                  70011de8    00000004                                                : sciclient.obj (.data.gSciclientHandle.4)
                  70011dec    00000004                                                : sciclient.obj (.data.gSciclientHandle.5)
                  70011df0    00000004     ti_drivers_config.obj (.data.gUartConfigNum)
                  70011df4    00000004     ti_drivers_open_close.obj (.data.gUartDmaChConfig)
                  70011df8    00000004     ti_drivers_config.obj (.data.operatingMode)
                  70011dfc    00000004     --HOLE-- [fill = 0]

.rodata    0    70011e00    00001ee0     
                  70011e00    00000168     drivers.am64x.r5f.ti-arm-clang.release.lib : sciclient_fmwSecureProxyMap.obj (.rodata.gSciclientMap)
                  70011f68    00000138                                                : udma_soc.obj (.rodata.gUdmaTxMappedChRingAttributes)
                  700120a0    00000132                                                : lpddr4_16bit.obj (.rodata.CtlIntMap)
                  700121d2    0000000e                                                : bootloader_profile.obj (.rodata.str1.73938047475404699101)
                  700121e0    00000101     libc.a : aeabi_ctype.S.obj (.rodata:__aeabi_ctype_table_)
                  700122e1    00000003     drivers.am64x.r5f.ti-arm-clang.release.lib : sciclient.obj (.rodata.str1.123851918244052356811)
                  700122e4    0000009c                                                : udma_soc.obj (.rodata.gUdmaRxMappedChRingAttributes)
                  70012380    00000068                                                : sciclient_irq_rm.obj (.rodata.tisci_if_TIMESYNC_EVENT_INTROUTER0)
                  700123e8    00000064     ti_dpl_config.obj (.rodata.cfg)
                  7001244c    00000061     drivers.am64x.r5f.ti-arm-clang.release.lib : bootloader.obj (.rodata.str1.27692862334559552701)
                  700124ad    00000003                                                : bootloader_profile.obj (.rodata.str1.87690159525529920121)
                  700124b0    00000058                                                : sciclient_irq_rm.obj (.rodata.gRmIrqTree)
                  70012508    00000050     nortos.am64x.r5f.ti-arm-clang.release.lib : printf.obj (.rodata._ftoa.pow10)
                  70012558    00000048     drivers.am64x.r5f.ti-arm-clang.release.lib : bootloader_soc.obj (.rodata.gSOC_r5fVectors)
                  700125a0    0000003e                                                : bootloader_profile.obj (.rodata.str1.10779536709706457681)
                  700125de    0000003e     nortos.am64x.r5f.ti-arm-clang.release.lib : TimerP.obj (.rodata.str1.155618297627321921901)
                  7001261c    0000003b     drivers.am64x.r5f.ti-arm-clang.release.lib : bootloader_profile.obj (.rodata.str1.154236700963031936241)
                  70012657    00000039                                                : sciclient.obj (.rodata.str1.33290974039123358371)
                  70012690    00000038                                                : bootloader_profile.obj (.rodata.str1.83904766851480127371)
                  700126c8    00000037     nortos.am64x.r5f.ti-arm-clang.release.lib : SemaphoreP_nortos.obj (.rodata.str1.77784356401422800491)
                  700126ff    00000036     drivers.am64x.r5f.ti-arm-clang.release.lib : bootloader_soc.obj (.rodata.str1.116160357178768892221)
                  70012735    00000036     ti_drivers_open_close.obj (.rodata.str1.135241915826326793361)
                  7001276b    00000036     drivers.am64x.r5f.ti-arm-clang.release.lib : ddr.obj (.rodata.str1.73433922848408513671)
                  700127a1    00000035                                                : bootloader_profile.obj (.rodata.str1.49020363832560342711)
                  700127d6    00000035     ti_drivers_open_close.obj (.rodata.str1.89322429334436556861)
                  7001280b    00000034     drivers.am64x.r5f.ti-arm-clang.release.lib : bootloader_soc.obj (.rodata.str1.157368025196999440281)
                  7001283f    00000034     nortos.am64x.r5f.ti-arm-clang.release.lib : TimerP.obj (.rodata.str1.164743418995849697991)
                  70012873    00000001     --HOLE-- [fill = 0]
                  70012874    00000034     drivers.am64x.r5f.ti-arm-clang.release.lib : sciclient_irq_rm.obj (.rodata.tisci_if_MAIN_GPIOMUX_INTROUTER0)
                  700128a8    00000033                                                : bootloader_soc.obj (.rodata.str1.104852797084389476111)
                  700128db    00000033     main.obj (.rodata.str1.171135724027876188451)
                  7001290e    00000033     drivers.am64x.r5f.ti-arm-clang.release.lib : bootloader_soc.obj (.rodata.str1.58199765499228280441)
                  70012941    00000032                                                : bootloader.obj (.rodata.str1.49453207730052505781)
                  70012973    00000032     main.obj (.rodata.str1.66840473539710954921)
                  700129a5    00000031     drivers.am64x.r5f.ti-arm-clang.release.lib : bootloader_profile.obj (.rodata.str1.72586947241727721351)
                  700129d6    00000031                                                : bootloader_profile.obj (.rodata.str1.8367434985930082761)
                  70012a07    00000031                                                : bootloader_soc.obj (.rodata.str1.94938212298975674041)
                  70012a38    00000030                                                : mmcsd_v0.obj (.rodata..Lswitch.table.MMCSD_phyConfigure.4)
                  70012a68    00000030                                                : mmcsd_v0.obj (.rodata..Lswitch.table.MMCSD_phyConfigure.5)
                  70012a98    00000030                                                : mmcsd_v0.obj (.rodata..Lswitch.table.MMCSD_phyConfigure.6)
                  70012ac8    00000030                                                : mmcsd_v0.obj (.rodata..Lswitch.table.MMCSD_phyConfigure)
                  70012af8    00000030                                                : mmcsd_priv.obj (.rodata.gMonths)
                  70012b28    00000030                                                : bootloader_soc.obj (.rodata.str1.10816064445523340901)
                  70012b58    00000030                                                : sciclient_irq_rm.obj (.rodata.tisci_if_DMASS0_INTAGGR_0)
                  70012b88    0000002f                                                : bootloader_soc.obj (.rodata.str1.93991859983843582671)
                  70012bb7    0000002f                                                : ddr.obj (.rodata.str1.94111967193122311561)
                  70012be6    0000002e     nortos.am64x.r5f.ti-arm-clang.release.lib : ClockP_nortos.obj (.rodata.str1.60552435462749564001)
                  70012c14    0000002d     drivers.am64x.r5f.ti-arm-clang.release.lib : ddr.obj (.rodata.str1.116939344651230115321)
                  70012c41    0000002d                                                : bootloader_soc.obj (.rodata.str1.16279038217554379711)
                  70012c6e    0000002d                                                : bootloader_soc.obj (.rodata.str1.163381840298971697551)
                  70012c9b    0000002c                                                : ddr.obj (.rodata.str1.115473847009400335091)
                  70012cc7    0000002c                                                : bootloader_soc.obj (.rodata.str1.126800844145081247951)
                  70012cf3    0000002c                                                : bootloader_soc.obj (.rodata.str1.130439613777423019031)
                  70012d1f    0000002c                                                : soc.obj (.rodata.str1.30948883670846405281)
                  70012d4b    0000002c                                                : bootloader.obj (.rodata.str1.38543240124036597621)
                  70012d77    0000002c                                                : ddr.obj (.rodata.str1.53769595288076202821)
                  70012da3    0000002c                                                : bootloader_soc.obj (.rodata.str1.67740237510159552421)
                  70012dcf    0000002b                                                : bootloader_soc.obj (.rodata.str1.103896507833577381681)
                  70012dfa    0000002b                                                : bootloader_soc.obj (.rodata.str1.108560865512182149471)
                  70012e25    0000002b                                                : bootloader_soc.obj (.rodata.str1.136315675252149246631)
                  70012e50    0000002b                                                : ddr.obj (.rodata.str1.79833557267131166431)
                  70012e7b    0000002a                                                : bootloader_soc.obj (.rodata.str1.108862625116848344691)
                  70012ea5    0000002a                                                : bootloader_soc.obj (.rodata.str1.38849067706911527761)
                  70012ecf    0000002a                                                : ddr.obj (.rodata.str1.44587981942987503481)
                  70012ef9    0000002a     nortos.am64x.r5f.ti-arm-clang.release.lib : DebugP_log.obj (.rodata.str1.8568035916953519521)
                  70012f23    00000028     drivers.am64x.r5f.ti-arm-clang.release.lib : ddr.obj (.rodata.str1.180652758740370262311)
                  70012f4b    00000027     nortos.am64x.r5f.ti-arm-clang.release.lib : ClockP_nortos_r5.obj (.rodata.str1.124546920576200709321)
                  70012f72    00000025     drivers.am64x.r5f.ti-arm-clang.release.lib : uart_dma_udma.obj (.rodata.str1.114986527709633033881)
                  70012f97    00000001     --HOLE-- [fill = 0]
                  70012f98    00000024                                                : sciclient_irq_rm.obj (.rodata.tisci_if_MCU_MCU_GPIOMUX_INTROUTER0)
                  70012fbc    00000023     nortos.am64x.r5f.ti-arm-clang.release.lib : ClockP_nortos_r5.obj (.rodata.str1.25776369892830718361)
                  70012fdf    00000022     drivers.am64x.r5f.ti-arm-clang.release.lib : bootloader_soc.obj (.rodata.str1.77336568927910017741)
                  70013001    00000021                                                : bootloader_soc.obj (.rodata.str1.139984562005889438511)
                  70013022    00000021     nortos.am64x.r5f.ti-arm-clang.release.lib : ClockP_nortos_r5.obj (.rodata.str1.167645692065458388701)
                  70013043    00000021     drivers.am64x.r5f.ti-arm-clang.release.lib : bootloader_soc.obj (.rodata.str1.30913301665249982781)
                  70013064    00000021                                                : bootloader_soc.obj (.rodata.str1.86709688509864093381)
                  70013085    00000003     --HOLE-- [fill = 0]
                  70013088    00000020                                                : soc.obj (.rodata.SOC_getCoreName.coreIdNames)
                  700130a8    00000020                                                : uart_v0_lld.obj (.rodata.cst32)
                  700130c8    00000020                                                : uart_v0.obj (.rodata.str1.169394063705023262141)
                  700130e8    00000020                                                : sciclient_irq_rm.obj (.rodata.tisci_if_CPTS0)
                  70013108    0000001f                                                : bootloader_soc.obj (.rodata.str1.101965529428999861021)
                  70013127    0000001f                                                : bootloader.obj (.rodata.str1.113312981303841419011)
                  70013146    0000001f     nortos.am64x.r5f.ti-arm-clang.release.lib : TimerP.obj (.rodata.str1.170816537386891942861)
                  70013165    0000001f     drivers.am64x.r5f.ti-arm-clang.release.lib : sciclient_boardcfg.obj (.rodata.str1.176112155955798027741)
                  70013184    0000001f     nortos.am64x.r5f.ti-arm-clang.release.lib : ClockP_nortos_r5.obj (.rodata.str1.37049961317335892191)
                  700131a3    0000001f                                               : SemaphoreP_nortos.obj (.rodata.str1.93106250239489445331)
                  700131c2    0000001e     drivers.am64x.r5f.ti-arm-clang.release.lib : bootloader_soc.obj (.rodata.str1.135292914848480988261)
                  700131e0    0000001e                                                : mmcsd_v0.obj (.rodata.str1.164849268246101456631)
                  700131fe    0000001e                                                : sciclient.obj (.rodata.str1.78689533181356323901)
                  7001321c    0000001d                                                : uart_v0.obj (.rodata.str1.151873246111077803171)
                  70013239    0000001d     nortos.am64x.r5f.ti-arm-clang.release.lib : TimerP.obj (.rodata.str1.154036655774719862071)
                  70013256    00000002     --HOLE-- [fill = 0]
                  70013258    0000001c     drivers.am64x.r5f.ti-arm-clang.release.lib : bootloader_soc.obj (.rodata..L__const.Bootloader_socRprcToCslCoreId.rprcCoreIds)
                  70013274    0000001c                                                : sciclient_irq_rm.obj (.rodata.tisci_if_PRU_ICSSG0)
                  70013290    0000001c                                                : sciclient_irq_rm.obj (.rodata.tisci_if_PRU_ICSSG1)
                  700132ac    0000001b                                                : sciclient.obj (.rodata.str1.144645175443399417801)
                  700132c7    0000001b     nortos.am64x.r5f.ti-arm-clang.release.lib : ClockP_nortos.obj (.rodata.str1.25471646840808198631)
                  700132e2    0000001b     drivers.am64x.r5f.ti-arm-clang.release.lib : uart_dma_udma.obj (.rodata.str1.67818304883869641861)
                  700132fd    0000001b     main.obj (.rodata.str1.88864587114646350841)
                  70013318    0000001a     drivers.am64x.r5f.ti-arm-clang.release.lib : bootloader_soc.obj (.rodata.str1.133075567201283886171)
                  70013332    0000001a                                                : sciclient.obj (.rodata.str1.13462214850640114411)
                  7001334c    0000001a     nortos.am64x.r5f.ti-arm-clang.release.lib : TimerP.obj (.rodata.str1.160246686209138365701)
                  70013366    0000001a                                               : ClockP_nortos_r5.obj (.rodata.str1.169616377957066558931)
                  70013380    0000001a     drivers.am64x.r5f.ti-arm-clang.release.lib : sciclient.obj (.rodata.str1.19960701266695328961)
                  7001339a    0000001a                                                : bootloader_soc.obj (.rodata.str1.35896618803728278211)
                  700133b4    0000001a     main.obj (.rodata.str1.42969106790848045441)
                  700133ce    00000019     nortos.am64x.r5f.ti-arm-clang.release.lib : TimerP.obj (.rodata.str1.170516325075394100231)
                  700133e7    00000019     drivers.am64x.r5f.ti-arm-clang.release.lib : bootloader_soc.obj (.rodata.str1.173612832747066941651)
                  70013400    00000019                                                : bootloader_soc.obj (.rodata.str1.181541439651868024511)
                  70013419    00000019                                                : bootloader.obj (.rodata.str1.31402796831322128521)
                  70013432    00000002     --HOLE-- [fill = 0]
                  70013434    00000018                                                : bootloader_profile.obj (.rodata..Lswitch.table.Bootloader_profilePrintProfileLog)
                  7001344c    00000018                                                : sciclient_soc_priv.obj (.rodata..Lswitch.table.Sciclient_getDevId)
                  70013464    00000018                                                : uart_v0.obj (.rodata.str1.144905129610797327471)
                  7001347c    00000018                                                : sciclient_irq_rm.obj (.rodata.tisci_if_CMP_EVENT_INTROUTER0)
                  70013494    00000017                                                : bootloader.obj (.rodata.str1.89222897150519810611)
                  700134ab    00000016                                                : mmcsd_v0.obj (.rodata.str1.110029375643886351641)
                  700134c1    00000016                                                : soc.obj (.rodata.str1.142142527847712988791)
                  700134d7    00000016                                                : uart_dma_udma.obj (.rodata.str1.58064152893147008181)
                  700134ed    00000015                                                : sciclient_boardcfg.obj (.rodata.str1.65453878383436959611)
                  70013502    00000015     nortos.am64x.r5f.ti-arm-clang.release.lib : SemaphoreP_nortos.obj (.rodata.str1.67625122021398397081)
                  70013517    00000015     drivers.am64x.r5f.ti-arm-clang.release.lib : bootloader_profile.obj (.rodata.str1.81203139757535820771)
                  7001352c    00000014                                                : mmcsd_v0.obj (.rodata.str1.118996750813502828521)
                  70013540    00000014     main.obj (.rodata.str1.79551435545072341851)
                  70013554    00000014     nortos.am64x.r5f.ti-arm-clang.release.lib : TimerP.obj (.rodata.str1.88986405623045072391)
                  70013568    00000014     drivers.am64x.r5f.ti-arm-clang.release.lib : sciclient_irq_rm.obj (.rodata.tisci_if_PCIE0)
                  7001357c    00000013                                                : uart_dma_udma.obj (.rodata.str1.145558629777882325291)
                  7001358f    00000013                                                : uart_dma_udma.obj (.rodata.str1.58816005642906289831)
                  700135a2    00000013                                                : uart_v0.obj (.rodata.str1.60965199449619900431)
                  700135b5    00000012                                                : uart_v0.obj (.rodata.str1.108170205221098943901)
                  700135c7    00000012                                                : uart_dma_udma.obj (.rodata.str1.120400024971159958011)
                  700135d9    00000012                                                : uart_dma_udma.obj (.rodata.str1.143756269692443897091)
                  700135eb    00000012     ti_drivers_open_close.obj (.rodata.str1.148526748270575400251)
                  700135fd    00000012     drivers.am64x.r5f.ti-arm-clang.release.lib : bootloader.obj (.rodata.str1.24728428003093102681)
                  7001360f    00000012     main.obj (.rodata.str1.55841430354152434161)
                  70013621    00000012     drivers.am64x.r5f.ti-arm-clang.release.lib : uart_v0.obj (.rodata.str1.62999113157451139141)
                  70013633    00000012                                                : uart_dma_udma.obj (.rodata.str1.92142058481998845101)
                  70013645    00000011     libc.a : _printfi.c.obj (.rodata.str1.11645776875810915891)
                  70013656    00000011            : _printfi.c.obj (.rodata.str1.44690500295887128011)
                  70013667    00000011     ti_drivers_open_close.obj (.rodata.str1.47319419042038394831)
                  70013678    00000011     nortos.am64x.r5f.ti-arm-clang.release.lib : ClockP_nortos.obj (.rodata.str1.56392992661620616651)
                  70013689    00000011     drivers.am64x.r5f.ti-arm-clang.release.lib : uart_v0.obj (.rodata.str1.60774846955662521161)
                  7001369a    00000010                                                : sciclient_boardcfg.obj (.rodata.str1.50192617725484665461)
                  700136aa    00000002     --HOLE-- [fill = 0]
                  700136ac    00000010                                                : sciclient_irq_rm.obj (.rodata.tisci_if_CPSW0)
                  700136bc    0000000f                                                : ddr.obj (.rodata.str1.131304886953556701471)
                  700136cb    0000000f     main.obj (.rodata.str1.17141933821247617371)
                  700136da    0000000d     nortos.am64x.r5f.ti-arm-clang.release.lib : TimerP.obj (.rodata.str1.36936046049119147381)
                  700136e7    0000000d     main.obj (.rodata.str1.52501554851255701521)
                  700136f4    0000000d     nortos.am64x.r5f.ti-arm-clang.release.lib : TimerP.obj (.rodata.str1.90798414294938570131)
                  70013701    0000000c     main.obj (.rodata.str1.176328792963337784071)
                  7001370d    0000000c     nortos.am64x.r5f.ti-arm-clang.release.lib : ClockP_nortos_r5.obj (.rodata.str1.43857604347425843821)
                  70013719    0000000c     drivers.am64x.r5f.ti-arm-clang.release.lib : mmcsd_v0.obj (.rodata.str1.741583573595172461)
                  70013725    0000000c                                                : ddr.obj (.rodata.str1.81852406950125532191)
                  70013731    0000000c                                                : ddr.obj (.rodata.str1.85710523956929449421)
                  7001373d    00000003     --HOLE-- [fill = 0]
                  70013740    0000000b                                                : bootloader_soc.obj (.rodata..L__const.Bootloader_socGetBootSeqOid.boot_seq)
                  7001374b    0000000b                                                : uart_v0.obj (.rodata.str1.147565038505633975661)
                  70013756    0000000b                                                : uart_v0.obj (.rodata.str1.163246704051681974461)
                  70013761    0000000b                                                : mmcsd_v0.obj (.rodata.str1.183648324259898368931)
                  7001376c    0000000b                                                : mmcsd_v0.obj (.rodata.str1.43863450352600118641)
                  70013777    0000000a                                                : ddr.obj (.rodata.str1.114661318390360142971)
                  70013781    0000000a                                                : ddr.obj (.rodata.str1.127390676962817437421)
                  7001378b    0000000a                                                : bootloader_profile.obj (.rodata.str1.150419499726709475151)
                  70013795    0000000a                                                : uart_v0.obj (.rodata.str1.181272059988846645511)
                  7001379f    0000000a                                                : uart_v0.obj (.rodata.str1.27933745631974480251)
                  700137a9    0000000a                                                : bootloader_profile.obj (.rodata.str1.35450365876429540601)
                  700137b3    0000000a     main.obj (.rodata.str1.97993385775340092391)
                  700137bd    00000001     --HOLE-- [fill = 0]
                  700137be    00000008     drivers.am64x.r5f.ti-arm-clang.release.lib : sciclient_irq_rm.obj (.rodata.CMP_EVENT_INTROUTER0_outp_0_15_to_GICSS0_spi_48_63)
                  700137c6    00000008                                                : sciclient_irq_rm.obj (.rodata.CMP_EVENT_INTROUTER0_outp_16_23_to_R5FSS0_CORE0_intr_48_55)
                  700137ce    00000008                                                : sciclient_irq_rm.obj (.rodata.CMP_EVENT_INTROUTER0_outp_16_23_to_R5FSS0_CORE1_intr_48_55)
                  700137d6    00000008                                                : sciclient_irq_rm.obj (.rodata.CMP_EVENT_INTROUTER0_outp_24_31_to_R5FSS1_CORE0_intr_48_55)
                  700137de    00000008                                                : sciclient_irq_rm.obj (.rodata.CMP_EVENT_INTROUTER0_outp_24_31_to_R5FSS1_CORE1_intr_48_55)
                  700137e6    00000008                                                : sciclient_irq_rm.obj (.rodata.CMP_EVENT_INTROUTER0_outp_32_39_to_DMASS0_INTAGGR_0_intaggr_levi_pend_0_7)
                  700137ee    00000008                                                : sciclient_irq_rm.obj (.rodata.CPSW0_cpts_comp_0_0_to_CMP_EVENT_INTROUTER0_in_80_80)
                  700137f6    00000008                                                : sciclient_irq_rm.obj (.rodata.CPSW0_cpts_genf0_1_1_to_TIMESYNC_EVENT_INTROUTER0_in_21_21)
                  700137fe    00000008                                                : sciclient_irq_rm.obj (.rodata.CPSW0_cpts_genf1_2_2_to_TIMESYNC_EVENT_INTROUTER0_in_22_22)
                  70013806    00000008                                                : sciclient_irq_rm.obj (.rodata.CPSW0_cpts_sync_3_3_to_TIMESYNC_EVENT_INTROUTER0_in_34_34)
                  7001380e    00000008                                                : sciclient_irq_rm.obj (.rodata.CPTS0_cpts_comp_0_0_to_CMP_EVENT_INTROUTER0_in_82_82)
                  70013816    00000008                                                : sciclient_irq_rm.obj (.rodata.CPTS0_cpts_genf0_1_1_to_TIMESYNC_EVENT_INTROUTER0_in_16_16)
                  7001381e    00000008                                                : sciclient_irq_rm.obj (.rodata.CPTS0_cpts_genf1_2_2_to_TIMESYNC_EVENT_INTROUTER0_in_17_17)
                  70013826    00000008                                                : sciclient_irq_rm.obj (.rodata.CPTS0_cpts_genf2_3_3_to_TIMESYNC_EVENT_INTROUTER0_in_18_18)
                  7001382e    00000008                                                : sciclient_irq_rm.obj (.rodata.CPTS0_cpts_genf3_4_4_to_TIMESYNC_EVENT_INTROUTER0_in_19_19)
                  70013836    00000008                                                : sciclient_irq_rm.obj (.rodata.CPTS0_cpts_genf4_5_5_to_TIMESYNC_EVENT_INTROUTER0_in_20_20)
                  7001383e    00000008                                                : sciclient_irq_rm.obj (.rodata.CPTS0_cpts_genf5_6_6_to_TIMESYNC_EVENT_INTROUTER0_in_24_24)
                  70013846    00000008                                                : sciclient_irq_rm.obj (.rodata.CPTS0_cpts_sync_7_7_to_TIMESYNC_EVENT_INTROUTER0_in_35_35)
                  7001384e    00000008                                                : sciclient_irq_rm.obj (.rodata.DMASS0_INTAGGR_0_intaggr_vintr_pend_0_39_to_GICSS0_spi_64_103)
                  70013856    00000008                                                : sciclient_irq_rm.obj (.rodata.DMASS0_INTAGGR_0_intaggr_vintr_pend_120_127_to_R5FSS1_CORE0_intr_8_15)
                  7001385e    00000008                                                : sciclient_irq_rm.obj (.rodata.DMASS0_INTAGGR_0_intaggr_vintr_pend_128_135_to_R5FSS1_CORE1_intr_8_15)
                  70013866    00000008                                                : sciclient_irq_rm.obj (.rodata.DMASS0_INTAGGR_0_intaggr_vintr_pend_152_159_to_PRU_ICSSG0_pr1_slv_intr_16_23)
                  7001386e    00000008                                                : sciclient_irq_rm.obj (.rodata.DMASS0_INTAGGR_0_intaggr_vintr_pend_160_167_to_PRU_ICSSG1_pr1_slv_intr_16_23)
                  70013876    00000008                                                : sciclient_irq_rm.obj (.rodata.DMASS0_INTAGGR_0_intaggr_vintr_pend_168_183_to_MCU_M4FSS0_CORE0_nvic_32_47)
                  7001387e    00000008                                                : sciclient_irq_rm.obj (.rodata.DMASS0_INTAGGR_0_intaggr_vintr_pend_40_71_to_R5FSS0_CORE0_intr_64_95)
                  70013886    00000008                                                : sciclient_irq_rm.obj (.rodata.DMASS0_INTAGGR_0_intaggr_vintr_pend_40_71_to_R5FSS0_CORE1_intr_64_95)
                  7001388e    00000008                                                : sciclient_irq_rm.obj (.rodata.DMASS0_INTAGGR_0_intaggr_vintr_pend_72_79_to_R5FSS0_CORE0_intr_8_15)
                  70013896    00000008                                                : sciclient_irq_rm.obj (.rodata.DMASS0_INTAGGR_0_intaggr_vintr_pend_80_87_to_R5FSS0_CORE1_intr_8_15)
                  7001389e    00000008                                                : sciclient_irq_rm.obj (.rodata.DMASS0_INTAGGR_0_intaggr_vintr_pend_88_119_to_R5FSS1_CORE0_intr_64_95)
                  700138a6    00000008                                                : sciclient_irq_rm.obj (.rodata.DMASS0_INTAGGR_0_intaggr_vintr_pend_88_119_to_R5FSS1_CORE1_intr_64_95)
                  700138ae    00000008                                                : sciclient_irq_rm.obj (.rodata.EPWM0_epwm_synco_o_0_0_to_TIMESYNC_EVENT_INTROUTER0_in_39_39)
                  700138b6    00000008                                                : sciclient_irq_rm.obj (.rodata.EPWM3_epwm_synco_o_0_0_to_TIMESYNC_EVENT_INTROUTER0_in_40_40)
                  700138be    00000008                                                : sciclient_irq_rm.obj (.rodata.EPWM6_epwm_synco_o_0_0_to_TIMESYNC_EVENT_INTROUTER0_in_41_41)
                  700138c6    00000008                                                : sciclient_irq_rm.obj (.rodata.GPIO0_gpio_0_89_to_MAIN_GPIOMUX_INTROUTER0_in_0_89)
                  700138ce    00000008                                                : sciclient_irq_rm.obj (.rodata.GPIO0_gpio_bank_90_98_to_MAIN_GPIOMUX_INTROUTER0_in_190_198)
                  700138d6    00000008                                                : sciclient_irq_rm.obj (.rodata.GPIO1_gpio_0_89_to_MAIN_GPIOMUX_INTROUTER0_in_90_179)
                  700138de    00000008                                                : sciclient_irq_rm.obj (.rodata.GPIO1_gpio_bank_90_98_to_MAIN_GPIOMUX_INTROUTER0_in_180_188)
                  700138e6    00000008                                                : sciclient_irq_rm.obj (.rodata.GPMC0_gpmc_sdmareq_0_0_to_DMASS0_INTAGGR_0_intaggr_levi_pend_29_29)
                  700138ee    00000008                                                : sciclient_irq_rm.obj (.rodata.GTC0_gtc_push_event_0_0_to_TIMESYNC_EVENT_INTROUTER0_in_36_36)
                  700138f6    00000008                                                : sciclient_irq_rm.obj (.rodata.MAIN_GPIOMUX_INTROUTER0_outp_0_15_to_GICSS0_spi_32_47)
                  700138fe    00000008                                                : sciclient_irq_rm.obj (.rodata.MAIN_GPIOMUX_INTROUTER0_outp_0_15_to_R5FSS0_CORE0_intr_32_47)
                  70013906    00000008                                                : sciclient_irq_rm.obj (.rodata.MAIN_GPIOMUX_INTROUTER0_outp_0_15_to_R5FSS0_CORE1_intr_32_47)
                  7001390e    00000008                                                : sciclient_irq_rm.obj (.rodata.MAIN_GPIOMUX_INTROUTER0_outp_0_15_to_R5FSS1_CORE0_intr_32_47)
                  70013916    00000008                                                : sciclient_irq_rm.obj (.rodata.MAIN_GPIOMUX_INTROUTER0_outp_0_15_to_R5FSS1_CORE1_intr_32_47)
                  7001391e    00000008                                                : sciclient_irq_rm.obj (.rodata.MAIN_GPIOMUX_INTROUTER0_outp_16_17_to_DMASS0_INTAGGR_0_intaggr_levi_pend_24_25)
                  70013926    00000008                                                : sciclient_irq_rm.obj (.rodata.MAIN_GPIOMUX_INTROUTER0_outp_18_23_to_PRU_ICSSG0_pr1_iep0_cap_intr_req_4_9)
                  7001392e    00000008                                                : sciclient_irq_rm.obj (.rodata.MAIN_GPIOMUX_INTROUTER0_outp_18_23_to_PRU_ICSSG1_pr1_iep0_cap_intr_req_4_9)
                  70013936    00000008                                                : sciclient_irq_rm.obj (.rodata.MAIN_GPIOMUX_INTROUTER0_outp_24_29_to_PRU_ICSSG0_pr1_iep1_cap_intr_req_10_15)
                  7001393e    00000008                                                : sciclient_irq_rm.obj (.rodata.MAIN_GPIOMUX_INTROUTER0_outp_24_29_to_PRU_ICSSG1_pr1_iep1_cap_intr_req_10_15)
                  70013946    00000008                                                : sciclient_irq_rm.obj (.rodata.MAIN_GPIOMUX_INTROUTER0_outp_30_37_to_DMASS0_INTAGGR_0_intaggr_levi_pend_16_23)
                  7001394e    00000008                                                : sciclient_irq_rm.obj (.rodata.MAIN_GPIOMUX_INTROUTER0_outp_38_45_to_PRU_ICSSG0_pr1_slv_intr_46_53)
                  70013956    00000008                                                : sciclient_irq_rm.obj (.rodata.MAIN_GPIOMUX_INTROUTER0_outp_46_53_to_PRU_ICSSG1_pr1_slv_intr_46_53)
                  7001395e    00000008                                                : sciclient_irq_rm.obj (.rodata.MCU_GPIO0_gpio_0_29_to_MCU_MCU_GPIOMUX_INTROUTER0_in_0_29)
                  70013966    00000008                                                : sciclient_irq_rm.obj (.rodata.MCU_GPIO0_gpio_bank_30_31_to_MCU_MCU_GPIOMUX_INTROUTER0_in_30_31)
                  7001396e    00000008                                                : sciclient_irq_rm.obj (.rodata.MCU_MCU_GPIOMUX_INTROUTER0_outp_0_3_to_GICSS0_spi_104_107)
                  70013976    00000008                                                : sciclient_irq_rm.obj (.rodata.MCU_MCU_GPIOMUX_INTROUTER0_outp_0_3_to_R5FSS0_CORE0_intr_104_107)
                  7001397e    00000008                                                : sciclient_irq_rm.obj (.rodata.MCU_MCU_GPIOMUX_INTROUTER0_outp_0_3_to_R5FSS0_CORE1_intr_104_107)
                  70013986    00000008                                                : sciclient_irq_rm.obj (.rodata.MCU_MCU_GPIOMUX_INTROUTER0_outp_0_3_to_R5FSS1_CORE0_intr_104_107)
                  7001398e    00000008                                                : sciclient_irq_rm.obj (.rodata.MCU_MCU_GPIOMUX_INTROUTER0_outp_0_3_to_R5FSS1_CORE1_intr_104_107)
                  70013996    00000008                                                : sciclient_irq_rm.obj (.rodata.MCU_MCU_GPIOMUX_INTROUTER0_outp_4_7_to_MCU_M4FSS0_CORE0_nvic_0_3)
                  7001399e    00000008                                                : sciclient_irq_rm.obj (.rodata.MCU_MCU_GPIOMUX_INTROUTER0_outp_8_11_to_MCU_ESM0_esm_pls_event0_88_91)
                  700139a6    00000008                                                : sciclient_irq_rm.obj (.rodata.MCU_MCU_GPIOMUX_INTROUTER0_outp_8_11_to_MCU_ESM0_esm_pls_event1_92_95)
                  700139ae    00000008                                                : sciclient_irq_rm.obj (.rodata.MCU_MCU_GPIOMUX_INTROUTER0_outp_8_11_to_MCU_ESM0_esm_pls_event2_96_99)
                  700139b6    00000008                                                : sciclient_irq_rm.obj (.rodata.PCIE0_pcie_cpts_comp_0_0_to_CMP_EVENT_INTROUTER0_in_81_81)
                  700139be    00000008                                                : sciclient_irq_rm.obj (.rodata.PCIE0_pcie_cpts_genf0_1_1_to_TIMESYNC_EVENT_INTROUTER0_in_23_23)
                  700139c6    00000008                                                : sciclient_irq_rm.obj (.rodata.PCIE0_pcie_cpts_hw1_push_2_2_to_TIMESYNC_EVENT_INTROUTER0_in_37_37)
                  700139ce    00000008                                                : sciclient_irq_rm.obj (.rodata.PCIE0_pcie_cpts_sync_3_3_to_TIMESYNC_EVENT_INTROUTER0_in_33_33)
                  700139d6    00000008                                                : sciclient_irq_rm.obj (.rodata.PCIE0_pcie_ptm_valid_pulse_4_4_to_TIMESYNC_EVENT_INTROUTER0_in_38_38)
                  700139de    00000008                                                : sciclient_irq_rm.obj (.rodata.PRU_ICSSG0_pr1_edc0_sync0_out_0_0_to_TIMESYNC_EVENT_INTROUTER0_in_25_25)
                  700139e6    00000008                                                : sciclient_irq_rm.obj (.rodata.PRU_ICSSG0_pr1_edc0_sync1_out_1_1_to_TIMESYNC_EVENT_INTROUTER0_in_26_26)
                  700139ee    00000008                                                : sciclient_irq_rm.obj (.rodata.PRU_ICSSG0_pr1_edc1_sync0_out_2_2_to_TIMESYNC_EVENT_INTROUTER0_in_27_27)
                  700139f6    00000008                                                : sciclient_irq_rm.obj (.rodata.PRU_ICSSG0_pr1_edc1_sync1_out_3_3_to_TIMESYNC_EVENT_INTROUTER0_in_28_28)
                  700139fe    00000008                                                : sciclient_irq_rm.obj (.rodata.PRU_ICSSG0_pr1_host_intr_req_4_11_to_CMP_EVENT_INTROUTER0_in_0_7)
                  70013a06    00000008                                                : sciclient_irq_rm.obj (.rodata.PRU_ICSSG0_pr1_iep0_cmp_intr_req_12_27_to_CMP_EVENT_INTROUTER0_in_16_31)
                  70013a0e    00000008                                                : sciclient_irq_rm.obj (.rodata.PRU_ICSSG0_pr1_iep1_cmp_intr_req_28_43_to_CMP_EVENT_INTROUTER0_in_32_47)
                  70013a16    00000008                                                : sciclient_irq_rm.obj (.rodata.PRU_ICSSG1_pr1_edc0_sync0_out_0_0_to_TIMESYNC_EVENT_INTROUTER0_in_29_29)
                  70013a1e    00000008                                                : sciclient_irq_rm.obj (.rodata.PRU_ICSSG1_pr1_edc0_sync1_out_1_1_to_TIMESYNC_EVENT_INTROUTER0_in_30_30)
                  70013a26    00000008                                                : sciclient_irq_rm.obj (.rodata.PRU_ICSSG1_pr1_edc1_sync0_out_2_2_to_TIMESYNC_EVENT_INTROUTER0_in_31_31)
                  70013a2e    00000008                                                : sciclient_irq_rm.obj (.rodata.PRU_ICSSG1_pr1_edc1_sync1_out_3_3_to_TIMESYNC_EVENT_INTROUTER0_in_32_32)
                  70013a36    00000008                                                : sciclient_irq_rm.obj (.rodata.PRU_ICSSG1_pr1_host_intr_req_4_11_to_CMP_EVENT_INTROUTER0_in_8_15)
                  70013a3e    00000008                                                : sciclient_irq_rm.obj (.rodata.PRU_ICSSG1_pr1_iep0_cmp_intr_req_12_27_to_CMP_EVENT_INTROUTER0_in_48_63)
                  70013a46    00000008                                                : sciclient_irq_rm.obj (.rodata.PRU_ICSSG1_pr1_iep1_cmp_intr_req_28_43_to_CMP_EVENT_INTROUTER0_in_64_79)
                  70013a4e    00000008                                                : sciclient_irq_rm.obj (.rodata.TIMER0_timer_pwm_0_0_to_TIMESYNC_EVENT_INTROUTER0_in_0_0)
                  70013a56    00000008                                                : sciclient_irq_rm.obj (.rodata.TIMER1_timer_pwm_0_0_to_TIMESYNC_EVENT_INTROUTER0_in_1_1)
                  70013a5e    00000008                                                : sciclient_irq_rm.obj (.rodata.TIMER2_timer_pwm_0_0_to_TIMESYNC_EVENT_INTROUTER0_in_2_2)
                  70013a66    00000008                                                : sciclient_irq_rm.obj (.rodata.TIMER3_timer_pwm_0_0_to_TIMESYNC_EVENT_INTROUTER0_in_3_3)
                  70013a6e    00000008                                                : sciclient_irq_rm.obj (.rodata.TIMESYNC_EVENT_INTROUTER0_outl_0_7_to_DMASS0_INTAGGR_0_intaggr_levi_pend_8_15)
                  70013a76    00000008                                                : sciclient_irq_rm.obj (.rodata.TIMESYNC_EVENT_INTROUTER0_outl_10_10_to_PRU_ICSSG0_pr1_edc1_latch0_in_2_2)
                  70013a7e    00000008                                                : sciclient_irq_rm.obj (.rodata.TIMESYNC_EVENT_INTROUTER0_outl_11_11_to_PRU_ICSSG0_pr1_edc1_latch1_in_3_3)
                  70013a86    00000008                                                : sciclient_irq_rm.obj (.rodata.TIMESYNC_EVENT_INTROUTER0_outl_12_12_to_PRU_ICSSG1_pr1_edc0_latch0_in_0_0)
                  70013a8e    00000008                                                : sciclient_irq_rm.obj (.rodata.TIMESYNC_EVENT_INTROUTER0_outl_13_13_to_PRU_ICSSG1_pr1_edc0_latch1_in_1_1)
                  70013a96    00000008                                                : sciclient_irq_rm.obj (.rodata.TIMESYNC_EVENT_INTROUTER0_outl_14_14_to_PRU_ICSSG1_pr1_edc1_latch0_in_2_2)
                  70013a9e    00000008                                                : sciclient_irq_rm.obj (.rodata.TIMESYNC_EVENT_INTROUTER0_outl_15_15_to_PRU_ICSSG1_pr1_edc1_latch1_in_3_3)
                  70013aa6    00000008                                                : sciclient_irq_rm.obj (.rodata.TIMESYNC_EVENT_INTROUTER0_outl_16_16_to_CPTS0_cpts_hw1_push_0_0)
                  70013aae    00000008                                                : sciclient_irq_rm.obj (.rodata.TIMESYNC_EVENT_INTROUTER0_outl_17_17_to_CPTS0_cpts_hw2_push_1_1)
                  70013ab6    00000008                                                : sciclient_irq_rm.obj (.rodata.TIMESYNC_EVENT_INTROUTER0_outl_18_18_to_CPTS0_cpts_hw3_push_2_2)
                  70013abe    00000008                                                : sciclient_irq_rm.obj (.rodata.TIMESYNC_EVENT_INTROUTER0_outl_19_19_to_CPTS0_cpts_hw4_push_3_3)
                  70013ac6    00000008                                                : sciclient_irq_rm.obj (.rodata.TIMESYNC_EVENT_INTROUTER0_outl_20_20_to_CPTS0_cpts_hw5_push_4_4)
                  70013ace    00000008                                                : sciclient_irq_rm.obj (.rodata.TIMESYNC_EVENT_INTROUTER0_outl_21_21_to_CPTS0_cpts_hw6_push_5_5)
                  70013ad6    00000008                                                : sciclient_irq_rm.obj (.rodata.TIMESYNC_EVENT_INTROUTER0_outl_22_22_to_CPTS0_cpts_hw7_push_6_6)
                  70013ade    00000008                                                : sciclient_irq_rm.obj (.rodata.TIMESYNC_EVENT_INTROUTER0_outl_23_23_to_CPTS0_cpts_hw8_push_7_7)
                  70013ae6    00000008                                                : sciclient_irq_rm.obj (.rodata.TIMESYNC_EVENT_INTROUTER0_outl_29_29_to_PCIE0_pcie_cpts_hw2_push_0_0)
                  70013aee    00000008                                                : sciclient_irq_rm.obj (.rodata.TIMESYNC_EVENT_INTROUTER0_outl_30_30_to_CPSW0_cpts_hw1_push_0_0)
                  70013af6    00000008                                                : sciclient_irq_rm.obj (.rodata.TIMESYNC_EVENT_INTROUTER0_outl_31_31_to_CPSW0_cpts_hw2_push_1_1)
                  70013afe    00000008                                                : sciclient_irq_rm.obj (.rodata.TIMESYNC_EVENT_INTROUTER0_outl_32_32_to_CPSW0_cpts_hw3_push_2_2)
                  70013b06    00000008                                                : sciclient_irq_rm.obj (.rodata.TIMESYNC_EVENT_INTROUTER0_outl_33_33_to_CPSW0_cpts_hw4_push_3_3)
                  70013b0e    00000008                                                : sciclient_irq_rm.obj (.rodata.TIMESYNC_EVENT_INTROUTER0_outl_34_34_to_CPSW0_cpts_hw5_push_4_4)
                  70013b16    00000008                                                : sciclient_irq_rm.obj (.rodata.TIMESYNC_EVENT_INTROUTER0_outl_35_35_to_CPSW0_cpts_hw6_push_5_5)
                  70013b1e    00000008                                                : sciclient_irq_rm.obj (.rodata.TIMESYNC_EVENT_INTROUTER0_outl_36_36_to_CPSW0_cpts_hw7_push_6_6)
                  70013b26    00000008                                                : sciclient_irq_rm.obj (.rodata.TIMESYNC_EVENT_INTROUTER0_outl_37_37_to_CPSW0_cpts_hw8_push_7_7)
                  70013b2e    00000008                                                : sciclient_irq_rm.obj (.rodata.TIMESYNC_EVENT_INTROUTER0_outl_8_8_to_PRU_ICSSG0_pr1_edc0_latch0_in_0_0)
                  70013b36    00000008                                                : sciclient_irq_rm.obj (.rodata.TIMESYNC_EVENT_INTROUTER0_outl_9_9_to_PRU_ICSSG0_pr1_edc0_latch1_in_1_1)
                  70013b3e    00000008                                                : bootloader_profile.obj (.rodata.str1.106778703375402328231)
                  70013b46    00000008                                                : soc.obj (.rodata.str1.151300073707883173501)
                  70013b4e    00000008                                                : bootloader_profile.obj (.rodata.str1.77606319027626426401)
                  70013b56    00000002     --HOLE-- [fill = 0]
                  70013b58    00000008                                                : sciclient_irq_rm.obj (.rodata.tisci_if_GPIO0)
                  70013b60    00000008                                                : sciclient_irq_rm.obj (.rodata.tisci_if_GPIO1)
                  70013b68    00000008                                                : sciclient_irq_rm.obj (.rodata.tisci_if_MCU_GPIO0)
                  70013b70    00000008                                                : sciclient_irq_rm.obj (.rodata.tisci_irq_CMP_EVENT_INTROUTER0)
                  70013b78    00000008                                                : sciclient_irq_rm.obj (.rodata.tisci_irq_CPSW0)
                  70013b80    00000008                                                : sciclient_irq_rm.obj (.rodata.tisci_irq_CPTS0)
                  70013b88    00000008                                                : sciclient_irq_rm.obj (.rodata.tisci_irq_DMASS0_INTAGGR_0)
                  70013b90    00000008                                                : sciclient_irq_rm.obj (.rodata.tisci_irq_EPWM0)
                  70013b98    00000008                                                : sciclient_irq_rm.obj (.rodata.tisci_irq_EPWM3)
                  70013ba0    00000008                                                : sciclient_irq_rm.obj (.rodata.tisci_irq_EPWM6)
                  70013ba8    00000008                                                : sciclient_irq_rm.obj (.rodata.tisci_irq_GPIO0)
                  70013bb0    00000008                                                : sciclient_irq_rm.obj (.rodata.tisci_irq_GPIO1)
                  70013bb8    00000008                                                : sciclient_irq_rm.obj (.rodata.tisci_irq_GPMC0)
                  70013bc0    00000008                                                : sciclient_irq_rm.obj (.rodata.tisci_irq_GTC0)
                  70013bc8    00000008                                                : sciclient_irq_rm.obj (.rodata.tisci_irq_MAIN_GPIOMUX_INTROUTER0)
                  70013bd0    00000008                                                : sciclient_irq_rm.obj (.rodata.tisci_irq_MCU_GPIO0)
                  70013bd8    00000008                                                : sciclient_irq_rm.obj (.rodata.tisci_irq_MCU_MCU_GPIOMUX_INTROUTER0)
                  70013be0    00000008                                                : sciclient_irq_rm.obj (.rodata.tisci_irq_PCIE0)
                  70013be8    00000008                                                : sciclient_irq_rm.obj (.rodata.tisci_irq_PRU_ICSSG0)
                  70013bf0    00000008                                                : sciclient_irq_rm.obj (.rodata.tisci_irq_PRU_ICSSG1)
                  70013bf8    00000008                                                : sciclient_irq_rm.obj (.rodata.tisci_irq_TIMER0)
                  70013c00    00000008                                                : sciclient_irq_rm.obj (.rodata.tisci_irq_TIMER1)
                  70013c08    00000008                                                : sciclient_irq_rm.obj (.rodata.tisci_irq_TIMER2)
                  70013c10    00000008                                                : sciclient_irq_rm.obj (.rodata.tisci_irq_TIMER3)
                  70013c18    00000008                                                : sciclient_irq_rm.obj (.rodata.tisci_irq_TIMESYNC_EVENT_INTROUTER0)
                  70013c20    00000007                                                : soc.obj (.rodata.str1.129767934033827004281)
                  70013c27    00000007                                                : soc.obj (.rodata.str1.138084936035417385701)
                  70013c2e    00000007                                                : mmcsd_priv.obj (.rodata.str1.169277816183180658011)
                  70013c35    00000007                                                : soc.obj (.rodata.str1.173614026293195413571)
                  70013c3c    00000007                                                : soc.obj (.rodata.str1.3343999558335659791)
                  70013c43    00000007                                                : soc.obj (.rodata.str1.49904740890756480101)
                  70013c4a    00000007                                                : soc.obj (.rodata.str1.69992811825708899781)
                  70013c51    00000007                                                : soc.obj (.rodata.str1.9860660422802257791)
                  70013c58    00000006                                                : bootloader_soc.obj (.rodata..L__const.Bootloader_socOpenFirewalls.fwlIds)
                  70013c5e    00000005     nortos.am64x.r5f.ti-arm-clang.release.lib : printf.obj (.rodata.str1.180255128143303278211)
                  70013c63    00000005     drivers.am64x.r5f.ti-arm-clang.release.lib : bootloader_profile.obj (.rodata.str1.35913918899629823491)
                  70013c68    00000005                                                : bootloader_profile.obj (.rodata.str1.53977571147357041301)
                  70013c6d    00000005     main.obj (.rodata.str1.61711049162809177441)
                  70013c72    00000005     nortos.am64x.r5f.ti-arm-clang.release.lib : printf.obj (.rodata.str1.62992066646743021711)
                  70013c77    00000001     --HOLE-- [fill = 0]
                  70013c78    00000004                                               : CacheP_armv7r.obj (.rodata.gCacheL1dCacheLineSize)
                  70013c7c    00000004                                               : CacheP_armv7r.obj (.rodata.gCacheL1pCacheLineSize)
                  70013c80    00000004     drivers.am64x.r5f.ti-arm-clang.release.lib : sciclient_irq_rm.obj (.rodata.gRmIrqTreeCount)
                  70013c84    00000004                                                : mmcsd_priv.obj (.rodata.str1.106127270655768860481)
                  70013c88    00000004                                                : mmcsd_priv.obj (.rodata.str1.112023889018067728831)
                  70013c8c    00000004                                                : mmcsd_priv.obj (.rodata.str1.130890479526057010671)
                  70013c90    00000004                                                : mmcsd_priv.obj (.rodata.str1.144381654125539955341)
                  70013c94    00000004                                                : mmcsd_priv.obj (.rodata.str1.151193337020903864861)
                  70013c98    00000004                                                : mmcsd_priv.obj (.rodata.str1.153330375160902015931)
                  70013c9c    00000004                                                : mmcsd_priv.obj (.rodata.str1.175445365315066401531)
                  70013ca0    00000004                                                : mmcsd_priv.obj (.rodata.str1.26044318937228883231)
                  70013ca4    00000004                                                : mmcsd_priv.obj (.rodata.str1.74688631718242580351)
                  70013ca8    00000004                                                : mmcsd_priv.obj (.rodata.str1.76538627638512658771)
                  70013cac    00000004                                                : mmcsd_priv.obj (.rodata.str1.82396488594776987111)
                  70013cb0    00000004     nortos.am64x.r5f.ti-arm-clang.release.lib : printf.obj (.rodata.str1.83442741595977738081)
                  70013cb4    00000004                                               : printf.obj (.rodata.str1.92767893489218153371)
                  70013cb8    00000004     drivers.am64x.r5f.ti-arm-clang.release.lib : mmcsd_priv.obj (.rodata.str1.97864509616496036981)
                  70013cbc    00000004                                                : sciclient_irq_rm.obj (.rodata.tisci_if_EPWM0)
                  70013cc0    00000004                                                : sciclient_irq_rm.obj (.rodata.tisci_if_EPWM3)
                  70013cc4    00000004                                                : sciclient_irq_rm.obj (.rodata.tisci_if_EPWM6)
                  70013cc8    00000004                                                : sciclient_irq_rm.obj (.rodata.tisci_if_GPMC0)
                  70013ccc    00000004                                                : sciclient_irq_rm.obj (.rodata.tisci_if_GTC0)
                  70013cd0    00000004                                                : sciclient_irq_rm.obj (.rodata.tisci_if_TIMER0)
                  70013cd4    00000004                                                : sciclient_irq_rm.obj (.rodata.tisci_if_TIMER1)
                  70013cd8    00000004                                                : sciclient_irq_rm.obj (.rodata.tisci_if_TIMER2)
                  70013cdc    00000004                                                : sciclient_irq_rm.obj (.rodata.tisci_if_TIMER3)

.sysmem    0    70070000    00008000     UNINITIALIZED
                  70070000    00000010     libc.a : memory.c.obj (.sysmem)
                  70070010    00007ff0     --HOLE--

.stack     0    70078000    00004000     UNINITIALIZED
                  70078000    00000004     nortos.am64x.r5f.ti-arm-clang.release.lib : boot_armv7r_asm.obj (.stack)
                  70078004    00003ffc     --HOLE--

.bss       0    7007c000    00001b80     UNINITIALIZED
                  7007c000    00001008     (.common:gHwiCtrl)
                  7007d008    000003c0     ti_drivers_config.obj (.bss.gMmcsdObjects)
                  7007d3c8    00000368     ti_drivers_config.obj (.bss.gUartObjects)
                  7007d730    00000038     (.common:gClockCtrl)
                  7007d768    00000014     drivers.am64x.r5f.ti-arm-clang.release.lib : ddr.obj (.bss.gLpddrPd)
                  7007d77c    00000004     nortos.am64x.r5f.ti-arm-clang.release.lib : HwiP_armv7r_vim.obj (.bss.gdummy)
                  7007d780    00000200     (.common:gMmcsdDataBuf0)
                  7007d980    0000011c     (.common:gProfileObj)
                  7007da9c    00000004     (.common:gMmcsdHandle)
                  7007daa0    00000028     drivers.am64x.r5f.ti-arm-clang.release.lib : sciclient_rm_irq.obj (.bss.gPstack)
                  7007dac8    00000028     (.common:gEmmcData0)
                  7007daf0    00000010                                                : ddr.obj (.bss.gLpddrCfg)
                  7007db00    0000000c     (.common:gADMA2Desc)
                  7007db0c    00000004     (.common:gUartHandle)
                  7007db10    00000070     --HOLE--

.irqstack 
*          0    7007db80    00001000     UNINITIALIZED
                  7007db80    00001000     --HOLE--

.fiqstack 
*          0    7007eb80    00000100     UNINITIALIZED
                  7007eb80    00000100     --HOLE--

.svcstack 
*          0    7007ec80    00000100     UNINITIALIZED
                  7007ec80    00000100     --HOLE--

.abortstack 
*          0    7007ed80    00000100     UNINITIALIZED
                  7007ed80    00000100     --HOLE--

.undefinedstack 
*          0    7007ee80    00000100     UNINITIALIZED
                  7007ee80    00000100     --HOLE--

__llvm_prf_cnts 
*          0    70070000    00000000     UNINITIALIZED

__llvm_prf_bits 
*          0    70070000    00000000     UNINITIALIZED

.app       0    82000000    00800000     UNINITIALIZED
                  82000000    00800000     main.obj (.app)

MODULE SUMMARY

       Module                                   code    ro data   rw data
       ------                                   ----    -------   -------
    obj/release/
       main.obj                                 872     247       8388608
       ti_drivers_config.obj                    94      0         9750   
       ti_drivers_open_close.obj                210     142       660    
       ti_power_clock_config.obj                186     0         68     
       ti_dpl_config.obj                        84      100       28     
       ti_pinmux_config.obj                     34      0         32     
       ti_board_open_close.obj                  4       0         0      
    +--+----------------------------------------+-------+---------+---------+
       Total:                                   1484    489       8399146
                                                                         
    /home/epswbld5/ti/ccs1270/ccs/tools/compiler/ti-cgt-armllvm_3.2.2.LTS/lib/armv7r-ti-none-eabihf/c/libc.a
       _printfi.c.obj                           3576    34        0      
       aeabi_ctype.S.obj                        0       257       0      
       snprintf.c.obj                           256     0         0      
       atoi.c.obj                               108     0         0      
       autoinit.c.obj                           88      0         0      
       memccpy.c.obj                            72      0         0      
       wcslen.c.obj                             32      0         0      
       memcpy32.S.obj                           28      0         0      
       memset32.S.obj                           24      0         0      
       aeabi_portable.c.obj                     12      0         4      
       exit.c.obj                               8       0         0      
    +--+----------------------------------------+-------+---------+---------+
       Total:                                   4204    291       4      
                                                                         
    /home/epswbld5/ti/ccs1270/ccs/tools/compiler/ti-cgt-armllvm_3.2.2.LTS/lib/clang/15.0.7/lib/armv7r-ti-none-eabihf/libclang_rt.builtins.a
       udivsi3.S.obj                            464     0         0      
       udivmoddi4.S.obj                         280     0         0      
       aeabi_uldivmod.S.obj                     36      0         0      
       aeabi_memset.S.obj                       28      0         0      
       aeabi_memcpy.S.obj                       12      0         0      
       aeabi_div0.c.obj                         8       0         0      
    +--+----------------------------------------+-------+---------+---------+
       Total:                                   828     0         0      
                                                                         
    /nightlybuilds/mcupsdk_internal/jenkins/mcu_plus_sdk_am64x_10_00_00_20/source/drivers/lib/drivers.am64x.r5f.ti-arm-clang.release.lib
       mmcsd_v0.obj                             7402    298       168    
       bootloader_soc.obj                       3216    1200      384    
       sciclient_rm_irq.obj                     4442    0         40     
       udma_ch.obj                              3890    0         0      
       udma_rm.obj                              3518    0         0      
       uart_v0_lld.obj                          3396    32        0      
       uart_v0.obj                              1962    199       156    
       bootloader.obj                           2024    288       0      
       udma_event.obj                           2002    0         0      
       sciclient_irq_rm.obj                     0       1612      332    
       sciclient.obj                            1680    169       21     
       csl_bcdma.obj                            1838    0         0      
       ddr.obj                                  1050    418       36     
       soc.obj                                  1276    155       0      
       uart_dma_udma.obj                        1236    178       0      
       sciclient_pm.obj                         1254    0         0      
       bootloader_profile.obj                   456     436       284    
       lpddr4_16bit.obj                         614     306       0      
       udma_ring_common.obj                     810     0         0      
       mmcsd_priv.obj                           658     103       0      
       sciclient_rm.obj                         686     0         0      
       sciclient_procboot.obj                   560     0         0      
       udma_soc.obj                             78      468       0      
       lpddr4.obj                               494     0         0      
       csl_pktdma.obj                           476     0         0      
       sciclient_fmwSecureProxyMap.obj          40      360       0      
       bootloader_mmcsd_raw.obj                 318     0         24     
       udma_flow.obj                            312     0         0      
       pinmux.obj                               198     0         0      
       sciclient_boardcfg.obj                   128     68        0      
       csl_emif.obj                             188     0         0      
       sciclient_soc_priv.obj                   104     24        32     
       csl_intaggr.obj                          158     0         0      
       sciclient_firewall.obj                   128     0         0      
       bootloader_mem.obj                       78      0         24     
       gtc.obj                                  74      0         0      
       ddr_soc.obj                              66      0         0      
       udma_utils.obj                           66      0         0      
       csl_lcdma_ringacc.obj                    16      0         0      
       csl_sec_proxy.obj                        10      0         0      
       uart_dma_soc.obj                         10      0         0      
    +--+----------------------------------------+-------+---------+---------+
       Total:                                   46912   6314      1501   
                                                                         
    /nightlybuilds/mcupsdk_internal/jenkins/mcu_plus_sdk_am64x_10_00_00_20/source/kernel/nortos/lib/nortos.am64x.r5f.ti-arm-clang.release.lib
       HwiP_armv7r_vim.obj                      1032    0         4108   
       printf.obj                               4002    98        0      
       CacheP_armv7r_asm.obj                    856     0         0      
       ClockP_nortos.obj                        656     90        56     
       TimerP.obj                               516     271       0      
       HwiP_armv7r_handlers_nortos.obj          544     0         0      
       ClockP_nortos_r5.obj                     266     176       0      
       SemaphoreP_nortos.obj                    328     107       0      
       MpuP_armv7r.obj                          402     0         0      
       boot_armv7r_asm.obj                      324     0         0      
       CacheP_armv7r.obj                        216     8         0      
       DebugP_log.obj                           154     42        4      
       HwiP_armv7r_handlers_nortos_asm.obj      192     0         0      
       HwiP_armv7r_asm.obj                      152     0         0      
       MpuP_armv7r_asm.obj                      128     0         0      
       AddrTranslateP.obj                       104     0         12     
       PmuP_armv7r.obj                          96      0         8      
       DebugP_uartLogWriter.obj                 70      0         4      
       HwiP_armv7r_vectors_nortos_sbl_asm.obj   64      0         0      
       DebugP_nortos.obj                        56      0         0      
       PmuP_armv7r_asm.obj                      56      0         0      
       boot_armv7r.obj                          28      0         0      
       TaskP_nortos.obj                         2       0         0      
    +--+----------------------------------------+-------+---------+---------+
       Total:                                   10244   792       4192   
                                                                         
       Heap:                                    0       0         32768  
       Stack:                                   0       0         16384  
    +--+----------------------------------------+-------+---------+---------+
       Grand Total:                             63672   7886      8453995

VENEERS

callee name               veneer name
   callee addr  veneer addr  call addr  call info
--------------  -----------  ---------  ----------------
__aeabi_memcpy            $Ven$TA$L$PI$$__aeabi_memcpy
   7000ea18     7000ea24     7000e8d2   drivers.am64x.r5f.ti-arm-clang.release.lib : bootloader_soc.obj (.text.Bootloader_socGetBootSeqOid)
HwiP_enable               $Ven$TA$L$PI$$HwiP_enable
   7000f168     7000ea34     7000d2f0   ti_dpl_config.obj (.text.Dpl_init)
HwiP_restore              $Ven$TA$L$PI$$HwiP_restore
   7000f188     7000ea3c     7000d2b0   nortos.am64x.r5f.ti-arm-clang.release.lib : ClockP_nortos.obj (.text.ClockP_stop)
                             7000dad2                                             : ClockP_nortos.obj (.text.ClockP_destruct)
                             7000dc5c                                             : ClockP_nortos.obj (.text.ClockP_start)
                             7000dd5a                                             : SemaphoreP_nortos.obj (.text.SemaphoreP_post)
PmuP_enableCounters       $Ven$TA$L$PI$$PmuP_enableCounters
   7000ddd0     7000ea44     7000bd84   nortos.am64x.r5f.ti-arm-clang.release.lib : PmuP_armv7r.obj (.text.pmu)
CacheP_wb                 $Ven$TA$L$PI$$CacheP_wb
   7000f2b4     7000ea4c     7000b642   drivers.am64x.r5f.ti-arm-clang.release.lib : uart_dma_udma.obj (.text.UART_udmaHpdInit)
HwiP_enableFIQ            $Ven$TA$L$PI$$HwiP_enableFIQ
   7000f178     7000f1b8     7000ee52   nortos.am64x.r5f.ti-arm-clang.release.lib : HwiP_armv7r_vim.obj (.text.hwi)
CacheP_invL1d             $Ven$TA$L$PI$$CacheP_invL1d
   7000f230     7000f5d8     7000f5d4   nortos.am64x.r5f.ti-arm-clang.release.lib : CacheP_armv7r.obj (.text.cache)
CacheP_enableL1p          $Ven$TA$L$PI$$CacheP_enableL1p
   7000f218     7000f5e0     7000f5ae   nortos.am64x.r5f.ti-arm-clang.release.lib : CacheP_armv7r.obj (.text.cache)
HwiP_restore              $Ven$TA$L$PI$$HwiP_restore
   7000f188     7000f5e8     7000f58e   nortos.am64x.r5f.ti-arm-clang.release.lib : CacheP_armv7r.obj (.text.cache)
HwiP_restore              $Ven$TA$L$PI$$HwiP_restore
   7000f188     7000f7fc     7000f6dc   nortos.am64x.r5f.ti-arm-clang.release.lib : MpuP_armv7r.obj (.text.mpu)
                             7000f71a                                             : MpuP_armv7r.obj (.text.mpu)
MpuP_isEnableAsm          $Ven$TA$L$PI$$MpuP_isEnableAsm
   7000f7d4     7000f804     7000f6ac   nortos.am64x.r5f.ti-arm-clang.release.lib : MpuP_armv7r.obj (.text.mpu)

[11 trampolines]
[15 trampoline calls]


GLOBAL SYMBOLS: SORTED ALPHABETICALLY BY Name 

address   name                                                                          
-------   ----                                                                          
7000b6b5  AddrTranslateP_getLocalAddr                                                   
70008567  App_loadImages                                                                
7000ddf1  App_loadLinuxImages                                                           
7000bf8b  App_runCpus                                                                   
700073cd  Board_driversOpen                                                             
7000dcc9  Bootloader_BootImageInfo_init                                                 
70008c13  Bootloader_MmcsdRaw_readFromOffset                                            
7000e8f3  Bootloader_Params_init                                                        
7000e837  Bootloader_close                                                              
7000e383  Bootloader_enableMCUPLL                                                       
7000c8ad  Bootloader_findSeq                                                            
70009a77  Bootloader_getMsgLen                                                          
7000e847  Bootloader_isCorePresent                                                      
7000cf9b  Bootloader_loadCpu                                                            
700091b9  Bootloader_loadSelfCpu                                                        
7000d875  Bootloader_open                                                               
70008b2b  Bootloader_parseAndLoadLinuxAppImage                                          
70008e9f  Bootloader_parseMultiCoreAppImage                                             
7000e639  Bootloader_profileAddCore                                                     
7000e1d9  Bootloader_profileAddProfilePoint                                             
700073d1  Bootloader_profilePrintProfileLog                                             
7000d1f5  Bootloader_profileReset                                                       
70008dcb  Bootloader_rprcImageLoad                                                      
7000bdb5  Bootloader_runCpu                                                             
7000e225  Bootloader_runSelfCpuWithLinux                                                
7000e6bb  Bootloader_socAuthImage                                                       
7000e51f  Bootloader_socCpuGetClkDefault                                                
7000b8b7  Bootloader_socCpuGetClock                                                     
7000e0e9  Bootloader_socCpuPowerOnReset                                                 
7000b25d  Bootloader_socCpuPowerOnResetA53                                              
70008241  Bootloader_socCpuPowerOnResetM4f                                              
70005825  Bootloader_socCpuPowerOnResetR5f                                              
7000b71d  Bootloader_socCpuRelease                                                      
7000b785  Bootloader_socCpuRequest                                                      
70005605  Bootloader_socCpuResetRelease                                                 
70006fb5  Bootloader_socCpuResetReleaseSelf                                             
7000b007  Bootloader_socCpuSetClock                                                     
7000a7cd  Bootloader_socCpuSetEntryPoint                                                
7000db85  Bootloader_socEnableICSSCores                                                 
7000e8c9  Bootloader_socGetBootSeqOid                                                   
7000e3a3  Bootloader_socGetCoreName                                                     
7000e949  Bootloader_socGetSBLMem                                                       
7000e53b  Bootloader_socIsAuthRequired                                                  
7000df8f  Bootloader_socIsMCUResetIsoEnabled                                            
7000e2d9  Bootloader_socIsR5FSSDual                                                     
7000b3b5  Bootloader_socMemInitCpu                                                      
7000e71d  Bootloader_socNotifyFirewallOpen                                              
7000aca3  Bootloader_socOpenFirewalls                                                   
7000e3c3  Bootloader_socRprcToCslCoreId                                                 
7000d9e9  Bootloader_socTranslateSectionAddr                                            
7000e9e1  Bootloader_socWaitForFWBoot                                                   
700053b5  Bootloader_verifyMulticoreImage                                               
7000e9c0  C$$EXIT                                                                       
700137be  CMP_EVENT_INTROUTER0_outp_0_15_to_GICSS0_spi_48_63                            
700137c6  CMP_EVENT_INTROUTER0_outp_16_23_to_R5FSS0_CORE0_intr_48_55                    
700137ce  CMP_EVENT_INTROUTER0_outp_16_23_to_R5FSS0_CORE1_intr_48_55                    
700137d6  CMP_EVENT_INTROUTER0_outp_24_31_to_R5FSS1_CORE0_intr_48_55                    
700137de  CMP_EVENT_INTROUTER0_outp_24_31_to_R5FSS1_CORE1_intr_48_55                    
700137e6  CMP_EVENT_INTROUTER0_outp_32_39_to_DMASS0_INTAGGR_0_intaggr_levi_pend_0_7     
700137ee  CPSW0_cpts_comp_0_0_to_CMP_EVENT_INTROUTER0_in_80_80                          
700137f6  CPSW0_cpts_genf0_1_1_to_TIMESYNC_EVENT_INTROUTER0_in_21_21                    
700137fe  CPSW0_cpts_genf1_2_2_to_TIMESYNC_EVENT_INTROUTER0_in_22_22                    
70013806  CPSW0_cpts_sync_3_3_to_TIMESYNC_EVENT_INTROUTER0_in_34_34                     
7000e9e5  CPS_UncachedRead32                                                            
7000e9e9  CPS_UncachedWrite32                                                           
7001380e  CPTS0_cpts_comp_0_0_to_CMP_EVENT_INTROUTER0_in_82_82                          
70013816  CPTS0_cpts_genf0_1_1_to_TIMESYNC_EVENT_INTROUTER0_in_16_16                    
7001381e  CPTS0_cpts_genf1_2_2_to_TIMESYNC_EVENT_INTROUTER0_in_17_17                    
70013826  CPTS0_cpts_genf2_3_3_to_TIMESYNC_EVENT_INTROUTER0_in_18_18                    
7001382e  CPTS0_cpts_genf3_4_4_to_TIMESYNC_EVENT_INTROUTER0_in_19_19                    
70013836  CPTS0_cpts_genf4_5_5_to_TIMESYNC_EVENT_INTROUTER0_in_20_20                    
7001383e  CPTS0_cpts_genf5_6_6_to_TIMESYNC_EVENT_INTROUTER0_in_24_24                    
70013846  CPTS0_cpts_sync_7_7_to_TIMESYNC_EVENT_INTROUTER0_in_35_35                     
700065d1  CSL_bcdmaChanOp                                                               
7000da25  CSL_bcdmaGetCfg                                                               
7000e249  CSL_bcdmaGetChanPeerReg                                                       
7000e733  CSL_bcdmaGetRxRT                                                              
7000e749  CSL_bcdmaGetTxRT                                                              
7000e2fb  CSL_bcdmaSetChanPeerReg                                                       
7000e75f  CSL_bcdmaSetRxRT                                                              
7000e775  CSL_bcdmaSetTxRT                                                              
7000e4c5  CSL_bcdmaTeardownRxChan                                                       
7000e4e3  CSL_bcdmaTeardownTxChan                                                       
7000e7ef  CSL_emifClearECCInterruptStatus                                               
7000b97f  CSL_emifConfig                                                                
7000e653  CSL_emifDisableECC                                                            
7000e66d  CSL_emifEnableECC                                                             
7000e801  CSL_emifEnableECCInterrupts                                                   
7000cb15  CSL_intaggrClrIntr                                                            
7000c52b  CSL_intaggrIsIntrPending                                                      
7000e857  CSL_lcdma_ringaccIsTeardownComplete                                           
7000e557  CSL_pktdmaGetChanPeerReg                                                      
7000dfbb  CSL_pktdmaGetRxRT                                                             
7000dfe7  CSL_pktdmaGetTxRT                                                             
7000e573  CSL_pktdmaSetChanPeerReg                                                      
7000e3e3  CSL_pktdmaSetRxRT                                                             
7000e403  CSL_pktdmaSetTxRT                                                             
7000e9c9  CSL_pktdmaTeardownRxChan                                                      
7000e9cf  CSL_pktdmaTeardownTxChan                                                      
7000e953  CSL_secProxyGetDataAddr                                                       
7000f4d0  CacheP_configForceWrThru                                                      
7000f559  CacheP_disable                                                                
7000f1c0  CacheP_disableL1d                                                             
7000f1e8  CacheP_disableL1p                                                             
7000f593  CacheP_enable                                                                 
7000f200  CacheP_enableL1d                                                              
7000f218  CacheP_enableL1p                                                              
7000f4c4  CacheP_getCacheLevelInfo                                                      
7000f48c  CacheP_getEnabled                                                             
7000f501  CacheP_init                                                                   
7000f5b3  CacheP_inv                                                                    
7000f230  CacheP_invL1d                                                                 
7000f2a4  CacheP_invL1dAll                                                              
7000f268  CacheP_invL1p                                                                 
7000f2ac  CacheP_invL1pAll                                                              
7000f4f0  CacheP_setDLFO                                                                
7000f2b4  CacheP_wb                                                                     
7000f32c  CacheP_wbAll                                                                  
7000f2f0  CacheP_wbInv                                                                  
7000f3d4  CacheP_wbInvAll                                                               
7000f3ec  CacheP_wbInvAllAsm                                                            
7000e95d  ClockP_Params_init                                                            
7000c76d  ClockP_construct                                                              
7000da9d  ClockP_destruct                                                               
7000e8ff  ClockP_getTicks                                                               
7000c42d  ClockP_getTimeUsec                                                            
7000e9ed  ClockP_getTimerCount                                                          
70008465  ClockP_init                                                                   
7000e967  ClockP_isActive                                                               
7000dc2d  ClockP_start                                                                  
7000d275  ClockP_stop                                                                   
7000e9f1  ClockP_timerClearOverflowInt                                                  
7000be13  ClockP_timerTickIsr                                                           
7000e78b  ClockP_usecToTicks                                                            
7000dcfb  ClockP_usleep                                                                 
7000ddc0  CycleCounterP_getCount32                                                      
7000bd55  CycleCounterP_init                                                            
7000bd89  CycleCounterP_nsToTicks                                                       
7000bd65  CycleCounterP_reset                                                           
7001018c  DDRSS_ctlReg                                                                  
70011182  DDRSS_ctlRegNum                                                               
70010828  DDRSS_phyIndepReg                                                             
700114d0  DDRSS_phyIndepRegNum                                                          
7000f9a0  DDRSS_phyReg                                                                  
70010d8c  DDRSS_phyRegNum                                                               
7000393f  DDR_init                                                                      
7000d0ab  DDR_socEnableVttRegulator                                                     
7001384e  DMASS0_INTAGGR_0_intaggr_vintr_pend_0_39_to_GICSS0_spi_64_103                 
70013856  DMASS0_INTAGGR_0_intaggr_vintr_pend_120_127_to_R5FSS1_CORE0_intr_8_15         
7001385e  DMASS0_INTAGGR_0_intaggr_vintr_pend_128_135_to_R5FSS1_CORE1_intr_8_15         
70013866  DMASS0_INTAGGR_0_intaggr_vintr_pend_152_159_to_PRU_ICSSG0_pr1_slv_intr_16_23  
7001386e  DMASS0_INTAGGR_0_intaggr_vintr_pend_160_167_to_PRU_ICSSG1_pr1_slv_intr_16_23  
70013876  DMASS0_INTAGGR_0_intaggr_vintr_pend_168_183_to_MCU_M4FSS0_CORE0_nvic_32_47    
7001387e  DMASS0_INTAGGR_0_intaggr_vintr_pend_40_71_to_R5FSS0_CORE0_intr_64_95          
70013886  DMASS0_INTAGGR_0_intaggr_vintr_pend_40_71_to_R5FSS0_CORE1_intr_64_95          
7001388e  DMASS0_INTAGGR_0_intaggr_vintr_pend_72_79_to_R5FSS0_CORE0_intr_8_15           
70013896  DMASS0_INTAGGR_0_intaggr_vintr_pend_80_87_to_R5FSS0_CORE1_intr_8_15           
7001389e  DMASS0_INTAGGR_0_intaggr_vintr_pend_88_119_to_R5FSS1_CORE0_intr_64_95         
700138a6  DMASS0_INTAGGR_0_intaggr_vintr_pend_88_119_to_R5FSS1_CORE1_intr_64_95         
7000e423  DebugP_logZoneEnable                                                          
7000dad7  DebugP_uartLogWriterPutChar                                                   
7000e90b  DebugP_uartSetDrvIndex                                                        
700034df  Dpl_deinit                                                                    
7000d2b5  Dpl_init                                                                      
7000e013  Drivers_close                                                                 
7000c9e5  Drivers_mmcsdOpen                                                             
7000e8d7  Drivers_open                                                                  
7000ca31  Drivers_uartOpen                                                              
700138ae  EPWM0_epwm_synco_o_0_0_to_TIMESYNC_EVENT_INTROUTER0_in_39_39                  
700138b6  EPWM3_epwm_synco_o_0_0_to_TIMESYNC_EVENT_INTROUTER0_in_40_40                  
700138be  EPWM6_epwm_synco_o_0_0_to_TIMESYNC_EVENT_INTROUTER0_in_41_41                  
700138c6  GPIO0_gpio_0_89_to_MAIN_GPIOMUX_INTROUTER0_in_0_89                            
700138ce  GPIO0_gpio_bank_90_98_to_MAIN_GPIOMUX_INTROUTER0_in_190_198                   
700138d6  GPIO1_gpio_0_89_to_MAIN_GPIOMUX_INTROUTER0_in_90_179                          
700138de  GPIO1_gpio_bank_90_98_to_MAIN_GPIOMUX_INTROUTER0_in_180_188                   
700138e6  GPMC0_gpmc_sdmareq_0_0_to_DMASS0_INTAGGR_0_intaggr_levi_pend_29_29            
700138ee  GTC0_gtc_push_event_0_0_to_TIMESYNC_EVENT_INTROUTER0_in_36_36                 
7000e443  GTC_init                                                                      
7000e06b  GTC_setFID                                                                    
7000eb59  HwiP_Params_init                                                              
7000eb11  HwiP_clearInt                                                                 
7000eb6b  HwiP_construct                                                                
7000f0fc  HwiP_data_abort_handler                                                       
7000f05b  HwiP_data_abort_handler_c                                                     
7000ecb5  HwiP_destruct                                                                 
7000f148  HwiP_disable                                                                  
7000f158  HwiP_disableFIQ                                                               
7000ea89  HwiP_disableInt                                                               
7000f1a0  HwiP_disableVIC                                                               
7000f168  HwiP_enable                                                                   
7000f178  HwiP_enableFIQ                                                                
7000ea61  HwiP_enableInt                                                                
7000f190  HwiP_enableVIC                                                                
7000eeef  HwiP_fiq_handler                                                              
7000f1b0  HwiP_getCPSR                                                                  
7000ee57  HwiP_inISR                                                                    
7000ed87  HwiP_init                                                                     
7000f088  HwiP_irq_handler                                                              
7000ee69  HwiP_irq_handler_c                                                            
7000eb31  HwiP_post                                                                     
7000f02d  HwiP_prefetch_abort_handler                                                   
7000efa3  HwiP_reserved_handler                                                         
7000f188  HwiP_restore                                                                  
7000eabb  HwiP_restoreInt                                                               
7000efff  HwiP_svc_handler                                                              
7000efd1  HwiP_undefined_handler                                                        
70008353  LPDDR4_AckCtlInterrupt                                                        
70007eef  LPDDR4_CheckCtlInterrupt                                                      
7000dc61  LPDDR4_EnablePIInitiator                                                      
7000e6d3  LPDDR4_Init                                                                   
7000dc95  LPDDR4_PollCtlIrq                                                             
7000e867  LPDDR4_Probe                                                                  
7000c8fb  LPDDR4_ReadReg                                                                
7000b425  LPDDR4_Start                                                                  
7000d2f5  LPDDR4_WriteCtlConfig                                                         
7000ce3d  LPDDR4_WritePhyConfig                                                         
7000cd63  LPDDR4_WritePhyIndepConfig                                                    
700138f6  MAIN_GPIOMUX_INTROUTER0_outp_0_15_to_GICSS0_spi_32_47                         
700138fe  MAIN_GPIOMUX_INTROUTER0_outp_0_15_to_R5FSS0_CORE0_intr_32_47                  
70013906  MAIN_GPIOMUX_INTROUTER0_outp_0_15_to_R5FSS0_CORE1_intr_32_47                  
7001390e  MAIN_GPIOMUX_INTROUTER0_outp_0_15_to_R5FSS1_CORE0_intr_32_47                  
70013916  MAIN_GPIOMUX_INTROUTER0_outp_0_15_to_R5FSS1_CORE1_intr_32_47                  
7001391e  MAIN_GPIOMUX_INTROUTER0_outp_16_17_to_DMASS0_INTAGGR_0_intaggr_levi_pend_24_25
70013926  MAIN_GPIOMUX_INTROUTER0_outp_18_23_to_PRU_ICSSG0_pr1_iep0_cap_intr_req_4_9    
7001392e  MAIN_GPIOMUX_INTROUTER0_outp_18_23_to_PRU_ICSSG1_pr1_iep0_cap_intr_req_4_9    
70013936  MAIN_GPIOMUX_INTROUTER0_outp_24_29_to_PRU_ICSSG0_pr1_iep1_cap_intr_req_10_15  
7001393e  MAIN_GPIOMUX_INTROUTER0_outp_24_29_to_PRU_ICSSG1_pr1_iep1_cap_intr_req_10_15  
70013946  MAIN_GPIOMUX_INTROUTER0_outp_30_37_to_DMASS0_INTAGGR_0_intaggr_levi_pend_16_23
7001394e  MAIN_GPIOMUX_INTROUTER0_outp_38_45_to_PRU_ICSSG0_pr1_slv_intr_46_53           
70013956  MAIN_GPIOMUX_INTROUTER0_outp_46_53_to_PRU_ICSSG1_pr1_slv_intr_46_53           
7001395e  MCU_GPIO0_gpio_0_29_to_MCU_MCU_GPIOMUX_INTROUTER0_in_0_29                     
70013966  MCU_GPIO0_gpio_bank_30_31_to_MCU_MCU_GPIOMUX_INTROUTER0_in_30_31              
7001396e  MCU_MCU_GPIOMUX_INTROUTER0_outp_0_3_to_GICSS0_spi_104_107                     
70013976  MCU_MCU_GPIOMUX_INTROUTER0_outp_0_3_to_R5FSS0_CORE0_intr_104_107              
7001397e  MCU_MCU_GPIOMUX_INTROUTER0_outp_0_3_to_R5FSS0_CORE1_intr_104_107              
70013986  MCU_MCU_GPIOMUX_INTROUTER0_outp_0_3_to_R5FSS1_CORE0_intr_104_107              
7001398e  MCU_MCU_GPIOMUX_INTROUTER0_outp_0_3_to_R5FSS1_CORE1_intr_104_107              
70013996  MCU_MCU_GPIOMUX_INTROUTER0_outp_4_7_to_MCU_M4FSS0_CORE0_nvic_0_3              
7001399e  MCU_MCU_GPIOMUX_INTROUTER0_outp_8_11_to_MCU_ESM0_esm_pls_event0_88_91         
700139a6  MCU_MCU_GPIOMUX_INTROUTER0_outp_8_11_to_MCU_ESM0_esm_pls_event1_92_95         
700139ae  MCU_MCU_GPIOMUX_INTROUTER0_outp_8_11_to_MCU_ESM0_esm_pls_event2_96_99         
7000c627  MMCSD_close                                                                   
7000e687  MMCSD_deinit                                                                  
7000973d  MMCSD_enableBootPartition                                                     
7000e79f  MMCSD_getBlockSize                                                            
7000de4d  MMCSD_getHandle                                                               
7000aba1  MMCSD_init                                                                    
70000edd  MMCSD_open                                                                    
7000aa07  MMCSD_parseCIDEmmc                                                            
7000b171  MMCSD_parseCIDSd                                                              
7000ce83  MMCSD_parseCSDEmmc                                                            
7000a3c3  MMCSD_parseCSDSd                                                              
7000a85d  MMCSD_parseECSDEmmc                                                           
7000e1ff  MMCSD_parseSCRSd                                                              
7000875b  MMCSD_read                                                                    
7000ded7  Module_clockDisable                                                           
7000df05  Module_clockEnable                                                            
7000ca7d  Module_clockSetFrequency                                                      
7000f5f1  MpuP_RegionAttrs_init                                                         
7000f6b1  MpuP_disable                                                                  
7000f784  MpuP_disableAsm                                                               
7000f79c  MpuP_disableBRAsm                                                             
7000f6e3  MpuP_enable                                                                   
7000f7ac  MpuP_enableAsm                                                                
7000f7c4  MpuP_enableBRAsm                                                              
7000f71f  MpuP_init                                                                     
7000f6ad  MpuP_isEnable                                                                 
7000f7d4  MpuP_isEnableAsm                                                              
7000f5ff  MpuP_setRegion                                                                
7000f7e8  MpuP_setRegionAsm                                                             
700139b6  PCIE0_pcie_cpts_comp_0_0_to_CMP_EVENT_INTROUTER0_in_81_81                     
700139be  PCIE0_pcie_cpts_genf0_1_1_to_TIMESYNC_EVENT_INTROUTER0_in_23_23               
700139c6  PCIE0_pcie_cpts_hw1_push_2_2_to_TIMESYNC_EVENT_INTROUTER0_in_37_37            
700139ce  PCIE0_pcie_cpts_sync_3_3_to_TIMESYNC_EVENT_INTROUTER0_in_33_33                
700139d6  PCIE0_pcie_ptm_valid_pulse_4_4_to_TIMESYNC_EVENT_INTROUTER0_in_38_38          
700139de  PRU_ICSSG0_pr1_edc0_sync0_out_0_0_to_TIMESYNC_EVENT_INTROUTER0_in_25_25       
700139e6  PRU_ICSSG0_pr1_edc0_sync1_out_1_1_to_TIMESYNC_EVENT_INTROUTER0_in_26_26       
700139ee  PRU_ICSSG0_pr1_edc1_sync0_out_2_2_to_TIMESYNC_EVENT_INTROUTER0_in_27_27       
700139f6  PRU_ICSSG0_pr1_edc1_sync1_out_3_3_to_TIMESYNC_EVENT_INTROUTER0_in_28_28       
700139fe  PRU_ICSSG0_pr1_host_intr_req_4_11_to_CMP_EVENT_INTROUTER0_in_0_7              
70013a06  PRU_ICSSG0_pr1_iep0_cmp_intr_req_12_27_to_CMP_EVENT_INTROUTER0_in_16_31       
70013a0e  PRU_ICSSG0_pr1_iep1_cmp_intr_req_28_43_to_CMP_EVENT_INTROUTER0_in_32_47       
70013a16  PRU_ICSSG1_pr1_edc0_sync0_out_0_0_to_TIMESYNC_EVENT_INTROUTER0_in_29_29       
70013a1e  PRU_ICSSG1_pr1_edc0_sync1_out_1_1_to_TIMESYNC_EVENT_INTROUTER0_in_30_30       
70013a26  PRU_ICSSG1_pr1_edc1_sync0_out_2_2_to_TIMESYNC_EVENT_INTROUTER0_in_31_31       
70013a2e  PRU_ICSSG1_pr1_edc1_sync1_out_3_3_to_TIMESYNC_EVENT_INTROUTER0_in_32_32       
70013a36  PRU_ICSSG1_pr1_host_intr_req_4_11_to_CMP_EVENT_INTROUTER0_in_8_15             
70013a3e  PRU_ICSSG1_pr1_iep0_cmp_intr_req_12_27_to_CMP_EVENT_INTROUTER0_in_48_63       
70013a46  PRU_ICSSG1_pr1_iep1_cmp_intr_req_28_43_to_CMP_EVENT_INTROUTER0_in_64_79       
7000ad9d  Pinmux_config                                                                 
7000e31d  Pinmux_init                                                                   
7000cb5f  Pinmux_unlockMMR                                                              
7000dde8  PmuP_clearOverflowStatus                                                      
7000ddd8  PmuP_disableCounters                                                          
7000ddd0  PmuP_enableCounters                                                           
7000dde0  PmuP_getOverflowStatus                                                        
7000ddc8  PmuP_setup                                                                    
7000ea01  PowerClock_deinit                                                             
7000e8e5  PowerClock_init                                                               
7000e095  SOC_controlModuleLockMMR                                                      
7000d8b3  SOC_controlModuleUnlockMMR                                                    
7000e5ab  SOC_getCoreName                                                               
7000e9d5  SOC_getFlashDataBaseAddr                                                      
7000e463  SOC_getSelfCpuClk                                                             
7000b56f  SOC_isR5FDualCoreMode                                                         
7000b493  SOC_moduleClockEnable                                                         
7000e9a1  SOC_moduleGetClockFrequency                                                   
70007c97  SOC_moduleSetClockFrequency                                                   
7000800f  SOC_moduleSetClockFrequencyWithParent                                         
70007dc9  SOC_unlockAllMMR                                                              
7000ac23  Sciclient_boardCfgPm                                                          
7000ea05  Sciclient_deinit                                                              
7000d335  Sciclient_firewallChangeOwnerInfo                                             
7000d375  Sciclient_firewallSetRegion                                                   
7000c80d  Sciclient_getContext                                                          
7000dbbd  Sciclient_getCurrentContext                                                   
7000e6eb  Sciclient_getDevId                                                            
7000e7b3  Sciclient_getRxThreadId                                                       
7000e917  Sciclient_getSelfDevIdCore                                                    
7000e7c7  Sciclient_getTxThreadId                                                       
70008f71  Sciclient_getVersionCheck                                                     
7000a1f5  Sciclient_init                                                                
7000b7eb  Sciclient_pmGetModuleClkFreq                                                  
7000af8d  Sciclient_pmGetModuleClkNumParent                                             
7000b851  Sciclient_pmGetModuleClkParent                                                
7000b501  Sciclient_pmGetModuleState                                                    
7000be71  Sciclient_pmModuleClkRequest                                                  
7000ba47  Sciclient_pmModuleGetClkStatus                                                
70009931  Sciclient_pmQueryModuleClkFreq                                                
7000a617  Sciclient_pmSetModuleClkFreq                                                  
7000becf  Sciclient_pmSetModuleClkParent                                                
7000cfdf  Sciclient_pmSetModuleRst                                                      
7000cec9  Sciclient_pmSetModuleRst_flags                                                
7000c679  Sciclient_pmSetModuleState                                                    
7000d0ed  Sciclient_procBootAuthAndStart                                                
7000cf0f  Sciclient_procBootGetProcessorState                                           
7000c949  Sciclient_procBootReleaseProcessor                                            
7000d023  Sciclient_procBootRequestProcessor                                            
7000d8f1  Sciclient_procBootSetProcessorCfg                                             
7000c09f  Sciclient_procBootSetSequenceCtrl                                             
7000ae19  Sciclient_procBootWaitProcessorState                                          
7000695b  Sciclient_rmClearInterruptRoute                                               
7000c5d3  Sciclient_rmGetResourceRange                                                  
7000ae95  Sciclient_rmIrOutpIsFree                                                      
7000e877  Sciclient_rmIrqRelease                                                        
7000d12f  Sciclient_rmIrqReleaseRaw                                                     
7000ea09  Sciclient_rmIrqSet                                                            
7000d3b5  Sciclient_rmIrqSetRaw                                                         
70005e45  Sciclient_rmProgramInterruptRoute                                             
7000d171  Sciclient_rmPsilPair                                                          
7000d1b3  Sciclient_rmPsilUnpair                                                        
7000d3f5  Sciclient_rmRingCfg                                                           
7000d435  Sciclient_rmUdmapFlowCfg                                                      
7000d475  Sciclient_rmUdmapFlowSizeThreshCfg                                            
7000d4b5  Sciclient_rmUdmapRxChCfg                                                      
7000d4f5  Sciclient_rmUdmapTxChCfg                                                      
700040cf  Sciclient_service                                                             
7000cba9  Sciclient_triggerSecHandover                                                  
7000bb0f  Sciclient_waitForBootNotification                                             
7000d535  SemaphoreP_constructBinary                                                    
7000d92f  SemaphoreP_constructMutex                                                     
700063ff  SemaphoreP_destruct                                                           
7000a459  SemaphoreP_pend                                                               
7000dd2d  SemaphoreP_post                                                               
7000e26d  System_deinit                                                                 
7000db4b  System_init                                                                   
70013a4e  TIMER0_timer_pwm_0_0_to_TIMESYNC_EVENT_INTROUTER0_in_0_0                      
70013a56  TIMER1_timer_pwm_0_0_to_TIMESYNC_EVENT_INTROUTER0_in_1_1                      
70013a5e  TIMER2_timer_pwm_0_0_to_TIMESYNC_EVENT_INTROUTER0_in_2_2                      
70013a66  TIMER3_timer_pwm_0_0_to_TIMESYNC_EVENT_INTROUTER0_in_3_3                      
70013a6e  TIMESYNC_EVENT_INTROUTER0_outl_0_7_to_DMASS0_INTAGGR_0_intaggr_levi_pend_8_15 
70013a76  TIMESYNC_EVENT_INTROUTER0_outl_10_10_to_PRU_ICSSG0_pr1_edc1_latch0_in_2_2     
70013a7e  TIMESYNC_EVENT_INTROUTER0_outl_11_11_to_PRU_ICSSG0_pr1_edc1_latch1_in_3_3     
70013a86  TIMESYNC_EVENT_INTROUTER0_outl_12_12_to_PRU_ICSSG1_pr1_edc0_latch0_in_0_0     
70013a8e  TIMESYNC_EVENT_INTROUTER0_outl_13_13_to_PRU_ICSSG1_pr1_edc0_latch1_in_1_1     
70013a96  TIMESYNC_EVENT_INTROUTER0_outl_14_14_to_PRU_ICSSG1_pr1_edc1_latch0_in_2_2     
70013a9e  TIMESYNC_EVENT_INTROUTER0_outl_15_15_to_PRU_ICSSG1_pr1_edc1_latch1_in_3_3     
70013aa6  TIMESYNC_EVENT_INTROUTER0_outl_16_16_to_CPTS0_cpts_hw1_push_0_0               
70013aae  TIMESYNC_EVENT_INTROUTER0_outl_17_17_to_CPTS0_cpts_hw2_push_1_1               
70013ab6  TIMESYNC_EVENT_INTROUTER0_outl_18_18_to_CPTS0_cpts_hw3_push_2_2               
70013abe  TIMESYNC_EVENT_INTROUTER0_outl_19_19_to_CPTS0_cpts_hw4_push_3_3               
70013ac6  TIMESYNC_EVENT_INTROUTER0_outl_20_20_to_CPTS0_cpts_hw5_push_4_4               
70013ace  TIMESYNC_EVENT_INTROUTER0_outl_21_21_to_CPTS0_cpts_hw6_push_5_5               
70013ad6  TIMESYNC_EVENT_INTROUTER0_outl_22_22_to_CPTS0_cpts_hw7_push_6_6               
70013ade  TIMESYNC_EVENT_INTROUTER0_outl_23_23_to_CPTS0_cpts_hw8_push_7_7               
70013ae6  TIMESYNC_EVENT_INTROUTER0_outl_29_29_to_PCIE0_pcie_cpts_hw2_push_0_0          
70013aee  TIMESYNC_EVENT_INTROUTER0_outl_30_30_to_CPSW0_cpts_hw1_push_0_0               
70013af6  TIMESYNC_EVENT_INTROUTER0_outl_31_31_to_CPSW0_cpts_hw2_push_1_1               
70013afe  TIMESYNC_EVENT_INTROUTER0_outl_32_32_to_CPSW0_cpts_hw3_push_2_2               
70013b06  TIMESYNC_EVENT_INTROUTER0_outl_33_33_to_CPSW0_cpts_hw4_push_3_3               
70013b0e  TIMESYNC_EVENT_INTROUTER0_outl_34_34_to_CPSW0_cpts_hw5_push_4_4               
70013b16  TIMESYNC_EVENT_INTROUTER0_outl_35_35_to_CPSW0_cpts_hw6_push_5_5               
70013b1e  TIMESYNC_EVENT_INTROUTER0_outl_36_36_to_CPSW0_cpts_hw7_push_6_6               
70013b26  TIMESYNC_EVENT_INTROUTER0_outl_37_37_to_CPSW0_cpts_hw8_push_7_7               
70013b2e  TIMESYNC_EVENT_INTROUTER0_outl_8_8_to_PRU_ICSSG0_pr1_edc0_latch0_in_0_0       
70013b36  TIMESYNC_EVENT_INTROUTER0_outl_9_9_to_PRU_ICSSG0_pr1_edc0_latch1_in_1_1       
7000e61c  TI_memcpy_small                                                               
7000e704  TI_memset_small                                                               
70008127  TaskP_yield                                                                   
7000e483  TimerP_Params_init                                                            
7000e813  TimerP_clearOverflowInt                                                       
7000ea0d  TimerP_getCount                                                               
7000ea11  TimerP_getReloadCount                                                         
7000679b  TimerP_setup                                                                  
7000e97b  TimerP_start                                                                  
7000e7db  UART_Transaction_init                                                         
70007661  UART_close                                                                    
7000e6a1  UART_deinit                                                                   
7000a157  UART_flushTxFifo                                                              
7000df33  UART_getHandle                                                                
7000a4ef  UART_init                                                                     
7000e887  UART_intr2Disable                                                             
7000bc95  UART_intrDisable                                                              
7000e985  UART_lld_Transaction_deInit                                                   
70005c3f  UART_lld_controllerIsr                                                        
7000cbf3  UART_lld_deInit                                                               
7000c6cb  UART_lld_deInitDma                                                            
7000e33f  UART_lld_dmaDeInit                                                            
7000bf2d  UART_lld_dmaDisableChannel                                                    
7000622b  UART_lld_dmaInit                                                              
70009039  UART_lld_dmaWrite                                                             
7000c2c7  UART_lld_flushTxFifo                                                          
70006e33  UART_lld_init                                                                 
70006b0b  UART_lld_initDma                                                              
700077a5  UART_lld_write                                                                
7000b1e7  UART_lld_writeDma                                                             
7000ab1b  UART_lld_writeIntr                                                            
70004809  UART_open                                                                     
7000e825  UART_operatingModeSelect                                                      
7000953f  UART_procLineStatusErr                                                        
7000e501  UART_spaceAvail                                                               
7000e98f  UART_udmapSetReturnPolicy                                                     
70008947  UART_write                                                                    
7000baab  UART_writeCancelNoCB                                                          
7000e923  UdmaChPdmaPrms_init                                                           
7000cc3d  UdmaChPrms_init                                                               
7000cf55  UdmaChRxPrms_init                                                             
7000cac9  UdmaChTxPrms_init                                                             
7000dd5f  UdmaEventPrms_init                                                            
7000d96d  UdmaFlowPrms_init                                                             
7000df61  UdmaRingPrms_init                                                             
7000e5c7  UdmaUtils_getRingMemSize                                                      
7000a6a9  Udma_chClose                                                                  
700097e5  Udma_chConfigPdma                                                             
70007a27  Udma_chConfigRx                                                               
70008cf1  Udma_chConfigTx                                                               
70002fbd  Udma_chDisable                                                                
70008851  Udma_chEnable                                                                 
7000e189  Udma_chGetCqRingHandle                                                        
7000e1b1  Udma_chGetFqRingHandle                                                        
70003d2b  Udma_chOpen                                                                   
7000ea15  Udma_defaultVirtToPhyFxn                                                      
7000e5e3  Udma_eventGetGlobalHandle                                                     
700034e1  Udma_eventRegister                                                            
70005a35  Udma_eventUnRegister                                                          
70008661  Udma_flowConfig                                                               
7000c997  Udma_getMappedChRingAttributes                                                
70006ca3  Udma_ringAlloc                                                                
7000c321  Udma_ringDequeueRaw                                                           
7000d9ab  Udma_ringFlushRaw                                                             
7000bb71  Udma_ringFree                                                                 
7000e9a9  Udma_ringGetForwardRingOcc                                                    
7000e9b1  Udma_ringGetReverseRingOcc                                                    
7000bbd3  Udma_ringQueueRaw                                                             
70009b17  Udma_rmAllocBlkCopyCh                                                         
70009bb7  Udma_rmAllocBlkCopyHcCh                                                       
70009c57  Udma_rmAllocBlkCopyUhcCh                                                      
7000c1b3  Udma_rmAllocEvent                                                             
7000e9db  Udma_rmAllocFreeRing                                                          
70009cf7  Udma_rmAllocIrIntr                                                            
7000a583  Udma_rmAllocMappedRing                                                        
700095e9  Udma_rmAllocMappedRxCh                                                        
70009693  Udma_rmAllocMappedTxCh                                                        
70009d97  Udma_rmAllocRxCh                                                              
70009e37  Udma_rmAllocRxHcCh                                                            
70009ed7  Udma_rmAllocRxUhcCh                                                           
70009f77  Udma_rmAllocTxCh                                                              
7000a017  Udma_rmAllocTxHcCh                                                            
7000a0b7  Udma_rmAllocTxUhcCh                                                           
7000c20f  Udma_rmAllocVintr                                                             
7000b341  Udma_rmAllocVintrBit                                                          
7000d575  Udma_rmFreeBlkCopyCh                                                          
7000d5b5  Udma_rmFreeBlkCopyHcCh                                                        
7000d5f5  Udma_rmFreeBlkCopyUhcCh                                                       
7000d635  Udma_rmFreeEvent                                                              
7000b3b3  Udma_rmFreeFreeRing                                                           
7000d675  Udma_rmFreeIrIntr                                                             
7000bcf5  Udma_rmFreeMappedRing                                                         
7000cc87  Udma_rmFreeMappedRxCh                                                         
7000ccd1  Udma_rmFreeMappedTxCh                                                         
7000d6b5  Udma_rmFreeRxCh                                                               
7000d6f5  Udma_rmFreeRxHcCh                                                             
7000d735  Udma_rmFreeRxUhcCh                                                            
7000d775  Udma_rmFreeTxCh                                                               
7000d7b5  Udma_rmFreeTxHcCh                                                             
7000d7f5  Udma_rmFreeTxUhcCh                                                            
7000d835  Udma_rmFreeVintr                                                              
7000c85d  Udma_rmFreeVintrBit                                                           
7000e897  Udma_rmTranslateCoreIntrInput                                                 
7000e8a7  Udma_rmTranslateIrOutput                                                      
7000e361  Udma_virtToPhyFxn                                                             
7000c26b  _DebugP_assert                                                                
7000f955  _DebugP_assertNoLog                                                           
7000dbf5  _DebugP_logZone                                                               
7007ee80  __ABORT_STACK_END                                                             
00000100  __ABORT_STACK_SIZE                                                            
7007ed80  __ABORT_STACK_START                                                           
7007db80  __BSS_END                                                                     
7007c000  __BSS_START                                                                   
7007ec80  __FIQ_STACK_END                                                               
00000100  __FIQ_STACK_SIZE                                                              
7007eb80  __FIQ_STACK_START                                                             
7007eb80  __IRQ_STACK_END                                                               
00001000  __IRQ_STACK_SIZE                                                              
7007db80  __IRQ_STACK_START                                                             
7007c000  __STACK_END                                                                   
00004000  __STACK_SIZE                                                                  
7007ed80  __SVC_STACK_END                                                               
00000100  __SVC_STACK_SIZE                                                              
7007ec80  __SVC_STACK_START                                                             
00008000  __SYSMEM_SIZE                                                                 
00000000  __TI_ATRegion0_region_sz                                                      
00000000  __TI_ATRegion0_src_addr                                                       
00000000  __TI_ATRegion0_trg_addr                                                       
00000000  __TI_ATRegion1_region_sz                                                      
00000000  __TI_ATRegion1_src_addr                                                       
00000000  __TI_ATRegion1_trg_addr                                                       
00000000  __TI_ATRegion2_region_sz                                                      
00000000  __TI_ATRegion2_src_addr                                                       
00000000  __TI_ATRegion2_trg_addr                                                       
UNDEFED   __TI_CINIT_Base                                                               
UNDEFED   __TI_CINIT_Limit                                                              
UNDEFED   __TI_Handler_Table_Base                                                       
UNDEFED   __TI_Handler_Table_Limit                                                      
7000c3d4  __TI_auto_init_nobinit_nopinit                                                
ffffffff  __TI_pprof_out_hndl                                                           
70000100  __TI_printfi_nofloat                                                          
ffffffff  __TI_prof_data_size                                                           
ffffffff  __TI_prof_data_start                                                          
70000000  __TI_static_base__                                                            
7007ef80  __UNDEFINED_STACK_END                                                         
00000100  __UNDEFINED_STACK_SIZE                                                        
7007ee80  __UNDEFINED_STACK_START                                                       
700121e0  __aeabi_ctype_table_                                                          
700121e0  __aeabi_ctype_table_C                                                         
70011c24  __aeabi_errno                                                                 
7000e930  __aeabi_errno_addr                                                            
7000ea20  __aeabi_idiv0                                                                 
7000ea30  __aeabi_ldiv0                                                                 
7000e93c  __aeabi_memclr                                                                
7000e93c  __aeabi_memclr4                                                               
7000e93c  __aeabi_memclr8                                                               
7000ea18  __aeabi_memcpy                                                                
7000ea18  __aeabi_memcpy4                                                               
7000ea18  __aeabi_memcpy8                                                               
7000e8b8  __aeabi_memset                                                                
7000e8b8  __aeabi_memset4                                                               
7000e8b8  __aeabi_memset8                                                               
70006400  __aeabi_uidiv                                                                 
7000e290  __aeabi_uldivmod                                                              
ffffffff  __binit__                                                                     
7000f98f  __mpu_init                                                                    
70078000  __stack                                                                       
70070000  __start___llvm_prf_bits                                                       
70070000  __start___llvm_prf_cnts                                                       
70070000  __stop___llvm_prf_bits                                                        
70070000  __stop___llvm_prf_cnts                                                        
70008128  __udivmoddi4                                                                  
70006400  __udivsi3                                                                     
7000f834  _c_int00                                                                      
7000f810  _c_int00_sbl                                                                  
70070000  _sys_memory                                                                   
UNDEFED   _system_post_cinit                                                            
7000f973  _system_pre_init                                                              
70000000  _vectors_sbl                                                                  
7000e9c0  abort                                                                         
7000b648  atoi                                                                          
ffffffff  binit                                                                         
7007db00  gADMA2Desc                                                                    
70011d70  gAddrTranslateConfig                                                          
70011784  gAddrTranslateInfo                                                            
82000000  gAppimage                                                                     
70011d7c  gBootloader0Args                                                              
70011d88  gBootloader1Args                                                              
70011b98  gBootloaderConfig                                                             
70011d6c  gBootloaderConfigNum                                                          
70011cd0  gBootloaderMemFxns                                                            
70011ce8  gBootloaderMmcsdFxns                                                          
700123e8  gCacheConfig                                                                  
70013c78  gCacheL1dCacheLineSize                                                        
70013c7c  gCacheL1pCacheLineSize                                                        
70011d00  gClockConfig                                                                  
7007d730  gClockCtrl                                                                    
70011900  gCoreBootInfo                                                                 
70011dc4  gDebugLogZone                                                                 
70011dd0  gDebugP_uartDrvIndex                                                          
7007dac8  gEmmcData0                                                                    
70011dd4  gHwiConfig                                                                    
7007c000  gHwiCtrl                                                                      
70011d94  gMemBootloaderArgs                                                            
70011d9c  gMmcsdConfig                                                                  
70011dd8  gMmcsdConfigNum                                                               
7007d780  gMmcsdDataBuf0                                                                
7007da9c  gMmcsdHandle                                                                  
70011da4  gMmcsdParams                                                                  
700123f0  gMpuConfig                                                                    
700123fc  gMpuRegionConfig                                                              
7007d980  gProfileObj                                                                   
70011d30  gResMemSection                                                                
70011c90  gRmIaInstances                                                                
70011ae0  gRmIrInstances                                                                
700124b0  gRmIrqTree                                                                    
70013c80  gRmIrqTreeCount                                                               
70012558  gSOC_r5fVectors                                                               
70011e00  gSciclientMap                                                                 
70011cb0  gSciclientSecProxyCfg                                                         
70011d44  gSocModules                                                                   
70011c60  gSocModulesClockFrequency                                                     
70011dbc  gUartConfig                                                                   
70011df0  gUartConfigNum                                                                
70011df4  gUartDmaChConfig                                                              
7000f9a0  gUartDmaHandle                                                                
7007db0c  gUartHandle                                                                   
70011b40  gUartParams                                                                   
700122e4  gUdmaRxMappedChRingAttributes                                                 
70011f68  gUdmaTxMappedChRingAttributes                                                 
70006047  main                                                                          
7000cdf4  memccpy                                                                       
70011df8  operatingMode                                                                 
7000ea1d  putchar_                                                                      
7000b0f8  snprintf                                                                      
7001347c  tisci_if_CMP_EVENT_INTROUTER0                                                 
700136ac  tisci_if_CPSW0                                                                
700130e8  tisci_if_CPTS0                                                                
70012b58  tisci_if_DMASS0_INTAGGR_0                                                     
70013cbc  tisci_if_EPWM0                                                                
70013cc0  tisci_if_EPWM3                                                                
70013cc4  tisci_if_EPWM6                                                                
70013b58  tisci_if_GPIO0                                                                
70013b60  tisci_if_GPIO1                                                                
70013cc8  tisci_if_GPMC0                                                                
70013ccc  tisci_if_GTC0                                                                 
70012874  tisci_if_MAIN_GPIOMUX_INTROUTER0                                              
70013b68  tisci_if_MCU_GPIO0                                                            
70012f98  tisci_if_MCU_MCU_GPIOMUX_INTROUTER0                                           
70013568  tisci_if_PCIE0                                                                
70013274  tisci_if_PRU_ICSSG0                                                           
70013290  tisci_if_PRU_ICSSG1                                                           
70013cd0  tisci_if_TIMER0                                                               
70013cd4  tisci_if_TIMER1                                                               
70013cd8  tisci_if_TIMER2                                                               
70013cdc  tisci_if_TIMER3                                                               
70012380  tisci_if_TIMESYNC_EVENT_INTROUTER0                                            
70011848  vint_usage_count_DMASS0_INTAGGR_0                                             
7000e2b5  vprintf_                                                                      
7000e4a4  wcslen                                                                        


GLOBAL SYMBOLS: SORTED BY Symbol Address 

address   name                                                                          
-------   ----                                                                          
00000000  __TI_ATRegion0_region_sz                                                      
00000000  __TI_ATRegion0_src_addr                                                       
00000000  __TI_ATRegion0_trg_addr                                                       
00000000  __TI_ATRegion1_region_sz                                                      
00000000  __TI_ATRegion1_src_addr                                                       
00000000  __TI_ATRegion1_trg_addr                                                       
00000000  __TI_ATRegion2_region_sz                                                      
00000000  __TI_ATRegion2_src_addr                                                       
00000000  __TI_ATRegion2_trg_addr                                                       
00000100  __ABORT_STACK_SIZE                                                            
00000100  __FIQ_STACK_SIZE                                                              
00000100  __SVC_STACK_SIZE                                                              
00000100  __UNDEFINED_STACK_SIZE                                                        
00001000  __IRQ_STACK_SIZE                                                              
00004000  __STACK_SIZE                                                                  
00008000  __SYSMEM_SIZE                                                                 
70000000  __TI_static_base__                                                            
70000000  _vectors_sbl                                                                  
70000100  __TI_printfi_nofloat                                                          
70000edd  MMCSD_open                                                                    
70002fbd  Udma_chDisable                                                                
700034df  Dpl_deinit                                                                    
700034e1  Udma_eventRegister                                                            
7000393f  DDR_init                                                                      
70003d2b  Udma_chOpen                                                                   
700040cf  Sciclient_service                                                             
70004809  UART_open                                                                     
700053b5  Bootloader_verifyMulticoreImage                                               
70005605  Bootloader_socCpuResetRelease                                                 
70005825  Bootloader_socCpuPowerOnResetR5f                                              
70005a35  Udma_eventUnRegister                                                          
70005c3f  UART_lld_controllerIsr                                                        
70005e45  Sciclient_rmProgramInterruptRoute                                             
70006047  main                                                                          
7000622b  UART_lld_dmaInit                                                              
700063ff  SemaphoreP_destruct                                                           
70006400  __aeabi_uidiv                                                                 
70006400  __udivsi3                                                                     
700065d1  CSL_bcdmaChanOp                                                               
7000679b  TimerP_setup                                                                  
7000695b  Sciclient_rmClearInterruptRoute                                               
70006b0b  UART_lld_initDma                                                              
70006ca3  Udma_ringAlloc                                                                
70006e33  UART_lld_init                                                                 
70006fb5  Bootloader_socCpuResetReleaseSelf                                             
700073cd  Board_driversOpen                                                             
700073d1  Bootloader_profilePrintProfileLog                                             
70007661  UART_close                                                                    
700077a5  UART_lld_write                                                                
70007a27  Udma_chConfigRx                                                               
70007c97  SOC_moduleSetClockFrequency                                                   
70007dc9  SOC_unlockAllMMR                                                              
70007eef  LPDDR4_CheckCtlInterrupt                                                      
7000800f  SOC_moduleSetClockFrequencyWithParent                                         
70008127  TaskP_yield                                                                   
70008128  __udivmoddi4                                                                  
70008241  Bootloader_socCpuPowerOnResetM4f                                              
70008353  LPDDR4_AckCtlInterrupt                                                        
70008465  ClockP_init                                                                   
70008567  App_loadImages                                                                
70008661  Udma_flowConfig                                                               
7000875b  MMCSD_read                                                                    
70008851  Udma_chEnable                                                                 
70008947  UART_write                                                                    
70008b2b  Bootloader_parseAndLoadLinuxAppImage                                          
70008c13  Bootloader_MmcsdRaw_readFromOffset                                            
70008cf1  Udma_chConfigTx                                                               
70008dcb  Bootloader_rprcImageLoad                                                      
70008e9f  Bootloader_parseMultiCoreAppImage                                             
70008f71  Sciclient_getVersionCheck                                                     
70009039  UART_lld_dmaWrite                                                             
700091b9  Bootloader_loadSelfCpu                                                        
7000953f  UART_procLineStatusErr                                                        
700095e9  Udma_rmAllocMappedRxCh                                                        
70009693  Udma_rmAllocMappedTxCh                                                        
7000973d  MMCSD_enableBootPartition                                                     
700097e5  Udma_chConfigPdma                                                             
70009931  Sciclient_pmQueryModuleClkFreq                                                
70009a77  Bootloader_getMsgLen                                                          
70009b17  Udma_rmAllocBlkCopyCh                                                         
70009bb7  Udma_rmAllocBlkCopyHcCh                                                       
70009c57  Udma_rmAllocBlkCopyUhcCh                                                      
70009cf7  Udma_rmAllocIrIntr                                                            
70009d97  Udma_rmAllocRxCh                                                              
70009e37  Udma_rmAllocRxHcCh                                                            
70009ed7  Udma_rmAllocRxUhcCh                                                           
70009f77  Udma_rmAllocTxCh                                                              
7000a017  Udma_rmAllocTxHcCh                                                            
7000a0b7  Udma_rmAllocTxUhcCh                                                           
7000a157  UART_flushTxFifo                                                              
7000a1f5  Sciclient_init                                                                
7000a3c3  MMCSD_parseCSDSd                                                              
7000a459  SemaphoreP_pend                                                               
7000a4ef  UART_init                                                                     
7000a583  Udma_rmAllocMappedRing                                                        
7000a617  Sciclient_pmSetModuleClkFreq                                                  
7000a6a9  Udma_chClose                                                                  
7000a7cd  Bootloader_socCpuSetEntryPoint                                                
7000a85d  MMCSD_parseECSDEmmc                                                           
7000aa07  MMCSD_parseCIDEmmc                                                            
7000ab1b  UART_lld_writeIntr                                                            
7000aba1  MMCSD_init                                                                    
7000ac23  Sciclient_boardCfgPm                                                          
7000aca3  Bootloader_socOpenFirewalls                                                   
7000ad9d  Pinmux_config                                                                 
7000ae19  Sciclient_procBootWaitProcessorState                                          
7000ae95  Sciclient_rmIrOutpIsFree                                                      
7000af8d  Sciclient_pmGetModuleClkNumParent                                             
7000b007  Bootloader_socCpuSetClock                                                     
7000b0f8  snprintf                                                                      
7000b171  MMCSD_parseCIDSd                                                              
7000b1e7  UART_lld_writeDma                                                             
7000b25d  Bootloader_socCpuPowerOnResetA53                                              
7000b341  Udma_rmAllocVintrBit                                                          
7000b3b3  Udma_rmFreeFreeRing                                                           
7000b3b5  Bootloader_socMemInitCpu                                                      
7000b425  LPDDR4_Start                                                                  
7000b493  SOC_moduleClockEnable                                                         
7000b501  Sciclient_pmGetModuleState                                                    
7000b56f  SOC_isR5FDualCoreMode                                                         
7000b648  atoi                                                                          
7000b6b5  AddrTranslateP_getLocalAddr                                                   
7000b71d  Bootloader_socCpuRelease                                                      
7000b785  Bootloader_socCpuRequest                                                      
7000b7eb  Sciclient_pmGetModuleClkFreq                                                  
7000b851  Sciclient_pmGetModuleClkParent                                                
7000b8b7  Bootloader_socCpuGetClock                                                     
7000b97f  CSL_emifConfig                                                                
7000ba47  Sciclient_pmModuleGetClkStatus                                                
7000baab  UART_writeCancelNoCB                                                          
7000bb0f  Sciclient_waitForBootNotification                                             
7000bb71  Udma_ringFree                                                                 
7000bbd3  Udma_ringQueueRaw                                                             
7000bc95  UART_intrDisable                                                              
7000bcf5  Udma_rmFreeMappedRing                                                         
7000bd55  CycleCounterP_init                                                            
7000bd65  CycleCounterP_reset                                                           
7000bd89  CycleCounterP_nsToTicks                                                       
7000bdb5  Bootloader_runCpu                                                             
7000be13  ClockP_timerTickIsr                                                           
7000be71  Sciclient_pmModuleClkRequest                                                  
7000becf  Sciclient_pmSetModuleClkParent                                                
7000bf2d  UART_lld_dmaDisableChannel                                                    
7000bf8b  App_runCpus                                                                   
7000c09f  Sciclient_procBootSetSequenceCtrl                                             
7000c1b3  Udma_rmAllocEvent                                                             
7000c20f  Udma_rmAllocVintr                                                             
7000c26b  _DebugP_assert                                                                
7000c2c7  UART_lld_flushTxFifo                                                          
7000c321  Udma_ringDequeueRaw                                                           
7000c3d4  __TI_auto_init_nobinit_nopinit                                                
7000c42d  ClockP_getTimeUsec                                                            
7000c52b  CSL_intaggrIsIntrPending                                                      
7000c5d3  Sciclient_rmGetResourceRange                                                  
7000c627  MMCSD_close                                                                   
7000c679  Sciclient_pmSetModuleState                                                    
7000c6cb  UART_lld_deInitDma                                                            
7000c76d  ClockP_construct                                                              
7000c80d  Sciclient_getContext                                                          
7000c85d  Udma_rmFreeVintrBit                                                           
7000c8ad  Bootloader_findSeq                                                            
7000c8fb  LPDDR4_ReadReg                                                                
7000c949  Sciclient_procBootReleaseProcessor                                            
7000c997  Udma_getMappedChRingAttributes                                                
7000c9e5  Drivers_mmcsdOpen                                                             
7000ca31  Drivers_uartOpen                                                              
7000ca7d  Module_clockSetFrequency                                                      
7000cac9  UdmaChTxPrms_init                                                             
7000cb15  CSL_intaggrClrIntr                                                            
7000cb5f  Pinmux_unlockMMR                                                              
7000cba9  Sciclient_triggerSecHandover                                                  
7000cbf3  UART_lld_deInit                                                               
7000cc3d  UdmaChPrms_init                                                               
7000cc87  Udma_rmFreeMappedRxCh                                                         
7000ccd1  Udma_rmFreeMappedTxCh                                                         
7000cd63  LPDDR4_WritePhyIndepConfig                                                    
7000cdf4  memccpy                                                                       
7000ce3d  LPDDR4_WritePhyConfig                                                         
7000ce83  MMCSD_parseCSDEmmc                                                            
7000cec9  Sciclient_pmSetModuleRst_flags                                                
7000cf0f  Sciclient_procBootGetProcessorState                                           
7000cf55  UdmaChRxPrms_init                                                             
7000cf9b  Bootloader_loadCpu                                                            
7000cfdf  Sciclient_pmSetModuleRst                                                      
7000d023  Sciclient_procBootRequestProcessor                                            
7000d0ab  DDR_socEnableVttRegulator                                                     
7000d0ed  Sciclient_procBootAuthAndStart                                                
7000d12f  Sciclient_rmIrqReleaseRaw                                                     
7000d171  Sciclient_rmPsilPair                                                          
7000d1b3  Sciclient_rmPsilUnpair                                                        
7000d1f5  Bootloader_profileReset                                                       
7000d275  ClockP_stop                                                                   
7000d2b5  Dpl_init                                                                      
7000d2f5  LPDDR4_WriteCtlConfig                                                         
7000d335  Sciclient_firewallChangeOwnerInfo                                             
7000d375  Sciclient_firewallSetRegion                                                   
7000d3b5  Sciclient_rmIrqSetRaw                                                         
7000d3f5  Sciclient_rmRingCfg                                                           
7000d435  Sciclient_rmUdmapFlowCfg                                                      
7000d475  Sciclient_rmUdmapFlowSizeThreshCfg                                            
7000d4b5  Sciclient_rmUdmapRxChCfg                                                      
7000d4f5  Sciclient_rmUdmapTxChCfg                                                      
7000d535  SemaphoreP_constructBinary                                                    
7000d575  Udma_rmFreeBlkCopyCh                                                          
7000d5b5  Udma_rmFreeBlkCopyHcCh                                                        
7000d5f5  Udma_rmFreeBlkCopyUhcCh                                                       
7000d635  Udma_rmFreeEvent                                                              
7000d675  Udma_rmFreeIrIntr                                                             
7000d6b5  Udma_rmFreeRxCh                                                               
7000d6f5  Udma_rmFreeRxHcCh                                                             
7000d735  Udma_rmFreeRxUhcCh                                                            
7000d775  Udma_rmFreeTxCh                                                               
7000d7b5  Udma_rmFreeTxHcCh                                                             
7000d7f5  Udma_rmFreeTxUhcCh                                                            
7000d835  Udma_rmFreeVintr                                                              
7000d875  Bootloader_open                                                               
7000d8b3  SOC_controlModuleUnlockMMR                                                    
7000d8f1  Sciclient_procBootSetProcessorCfg                                             
7000d92f  SemaphoreP_constructMutex                                                     
7000d96d  UdmaFlowPrms_init                                                             
7000d9ab  Udma_ringFlushRaw                                                             
7000d9e9  Bootloader_socTranslateSectionAddr                                            
7000da25  CSL_bcdmaGetCfg                                                               
7000da9d  ClockP_destruct                                                               
7000dad7  DebugP_uartLogWriterPutChar                                                   
7000db4b  System_init                                                                   
7000db85  Bootloader_socEnableICSSCores                                                 
7000dbbd  Sciclient_getCurrentContext                                                   
7000dbf5  _DebugP_logZone                                                               
7000dc2d  ClockP_start                                                                  
7000dc61  LPDDR4_EnablePIInitiator                                                      
7000dc95  LPDDR4_PollCtlIrq                                                             
7000dcc9  Bootloader_BootImageInfo_init                                                 
7000dcfb  ClockP_usleep                                                                 
7000dd2d  SemaphoreP_post                                                               
7000dd5f  UdmaEventPrms_init                                                            
7000ddc0  CycleCounterP_getCount32                                                      
7000ddc8  PmuP_setup                                                                    
7000ddd0  PmuP_enableCounters                                                           
7000ddd8  PmuP_disableCounters                                                          
7000dde0  PmuP_getOverflowStatus                                                        
7000dde8  PmuP_clearOverflowStatus                                                      
7000ddf1  App_loadLinuxImages                                                           
7000de4d  MMCSD_getHandle                                                               
7000ded7  Module_clockDisable                                                           
7000df05  Module_clockEnable                                                            
7000df33  UART_getHandle                                                                
7000df61  UdmaRingPrms_init                                                             
7000df8f  Bootloader_socIsMCUResetIsoEnabled                                            
7000dfbb  CSL_pktdmaGetRxRT                                                             
7000dfe7  CSL_pktdmaGetTxRT                                                             
7000e013  Drivers_close                                                                 
7000e06b  GTC_setFID                                                                    
7000e095  SOC_controlModuleLockMMR                                                      
7000e0e9  Bootloader_socCpuPowerOnReset                                                 
7000e189  Udma_chGetCqRingHandle                                                        
7000e1b1  Udma_chGetFqRingHandle                                                        
7000e1d9  Bootloader_profileAddProfilePoint                                             
7000e1ff  MMCSD_parseSCRSd                                                              
7000e225  Bootloader_runSelfCpuWithLinux                                                
7000e249  CSL_bcdmaGetChanPeerReg                                                       
7000e26d  System_deinit                                                                 
7000e290  __aeabi_uldivmod                                                              
7000e2b5  vprintf_                                                                      
7000e2d9  Bootloader_socIsR5FSSDual                                                     
7000e2fb  CSL_bcdmaSetChanPeerReg                                                       
7000e31d  Pinmux_init                                                                   
7000e33f  UART_lld_dmaDeInit                                                            
7000e361  Udma_virtToPhyFxn                                                             
7000e383  Bootloader_enableMCUPLL                                                       
7000e3a3  Bootloader_socGetCoreName                                                     
7000e3c3  Bootloader_socRprcToCslCoreId                                                 
7000e3e3  CSL_pktdmaSetRxRT                                                             
7000e403  CSL_pktdmaSetTxRT                                                             
7000e423  DebugP_logZoneEnable                                                          
7000e443  GTC_init                                                                      
7000e463  SOC_getSelfCpuClk                                                             
7000e483  TimerP_Params_init                                                            
7000e4a4  wcslen                                                                        
7000e4c5  CSL_bcdmaTeardownRxChan                                                       
7000e4e3  CSL_bcdmaTeardownTxChan                                                       
7000e501  UART_spaceAvail                                                               
7000e51f  Bootloader_socCpuGetClkDefault                                                
7000e53b  Bootloader_socIsAuthRequired                                                  
7000e557  CSL_pktdmaGetChanPeerReg                                                      
7000e573  CSL_pktdmaSetChanPeerReg                                                      
7000e5ab  SOC_getCoreName                                                               
7000e5c7  UdmaUtils_getRingMemSize                                                      
7000e5e3  Udma_eventGetGlobalHandle                                                     
7000e61c  TI_memcpy_small                                                               
7000e639  Bootloader_profileAddCore                                                     
7000e653  CSL_emifDisableECC                                                            
7000e66d  CSL_emifEnableECC                                                             
7000e687  MMCSD_deinit                                                                  
7000e6a1  UART_deinit                                                                   
7000e6bb  Bootloader_socAuthImage                                                       
7000e6d3  LPDDR4_Init                                                                   
7000e6eb  Sciclient_getDevId                                                            
7000e704  TI_memset_small                                                               
7000e71d  Bootloader_socNotifyFirewallOpen                                              
7000e733  CSL_bcdmaGetRxRT                                                              
7000e749  CSL_bcdmaGetTxRT                                                              
7000e75f  CSL_bcdmaSetRxRT                                                              
7000e775  CSL_bcdmaSetTxRT                                                              
7000e78b  ClockP_usecToTicks                                                            
7000e79f  MMCSD_getBlockSize                                                            
7000e7b3  Sciclient_getRxThreadId                                                       
7000e7c7  Sciclient_getTxThreadId                                                       
7000e7db  UART_Transaction_init                                                         
7000e7ef  CSL_emifClearECCInterruptStatus                                               
7000e801  CSL_emifEnableECCInterrupts                                                   
7000e813  TimerP_clearOverflowInt                                                       
7000e825  UART_operatingModeSelect                                                      
7000e837  Bootloader_close                                                              
7000e847  Bootloader_isCorePresent                                                      
7000e857  CSL_lcdma_ringaccIsTeardownComplete                                           
7000e867  LPDDR4_Probe                                                                  
7000e877  Sciclient_rmIrqRelease                                                        
7000e887  UART_intr2Disable                                                             
7000e897  Udma_rmTranslateCoreIntrInput                                                 
7000e8a7  Udma_rmTranslateIrOutput                                                      
7000e8b8  __aeabi_memset                                                                
7000e8b8  __aeabi_memset4                                                               
7000e8b8  __aeabi_memset8                                                               
7000e8c9  Bootloader_socGetBootSeqOid                                                   
7000e8d7  Drivers_open                                                                  
7000e8e5  PowerClock_init                                                               
7000e8f3  Bootloader_Params_init                                                        
7000e8ff  ClockP_getTicks                                                               
7000e90b  DebugP_uartSetDrvIndex                                                        
7000e917  Sciclient_getSelfDevIdCore                                                    
7000e923  UdmaChPdmaPrms_init                                                           
7000e930  __aeabi_errno_addr                                                            
7000e93c  __aeabi_memclr                                                                
7000e93c  __aeabi_memclr4                                                               
7000e93c  __aeabi_memclr8                                                               
7000e949  Bootloader_socGetSBLMem                                                       
7000e953  CSL_secProxyGetDataAddr                                                       
7000e95d  ClockP_Params_init                                                            
7000e967  ClockP_isActive                                                               
7000e97b  TimerP_start                                                                  
7000e985  UART_lld_Transaction_deInit                                                   
7000e98f  UART_udmapSetReturnPolicy                                                     
7000e9a1  SOC_moduleGetClockFrequency                                                   
7000e9a9  Udma_ringGetForwardRingOcc                                                    
7000e9b1  Udma_ringGetReverseRingOcc                                                    
7000e9c0  C$$EXIT                                                                       
7000e9c0  abort                                                                         
7000e9c9  CSL_pktdmaTeardownRxChan                                                      
7000e9cf  CSL_pktdmaTeardownTxChan                                                      
7000e9d5  SOC_getFlashDataBaseAddr                                                      
7000e9db  Udma_rmAllocFreeRing                                                          
7000e9e1  Bootloader_socWaitForFWBoot                                                   
7000e9e5  CPS_UncachedRead32                                                            
7000e9e9  CPS_UncachedWrite32                                                           
7000e9ed  ClockP_getTimerCount                                                          
7000e9f1  ClockP_timerClearOverflowInt                                                  
7000ea01  PowerClock_deinit                                                             
7000ea05  Sciclient_deinit                                                              
7000ea09  Sciclient_rmIrqSet                                                            
7000ea0d  TimerP_getCount                                                               
7000ea11  TimerP_getReloadCount                                                         
7000ea15  Udma_defaultVirtToPhyFxn                                                      
7000ea18  __aeabi_memcpy                                                                
7000ea18  __aeabi_memcpy4                                                               
7000ea18  __aeabi_memcpy8                                                               
7000ea1d  putchar_                                                                      
7000ea20  __aeabi_idiv0                                                                 
7000ea30  __aeabi_ldiv0                                                                 
7000ea61  HwiP_enableInt                                                                
7000ea89  HwiP_disableInt                                                               
7000eabb  HwiP_restoreInt                                                               
7000eb11  HwiP_clearInt                                                                 
7000eb31  HwiP_post                                                                     
7000eb59  HwiP_Params_init                                                              
7000eb6b  HwiP_construct                                                                
7000ecb5  HwiP_destruct                                                                 
7000ed87  HwiP_init                                                                     
7000ee57  HwiP_inISR                                                                    
7000ee69  HwiP_irq_handler_c                                                            
7000eeef  HwiP_fiq_handler                                                              
7000efa3  HwiP_reserved_handler                                                         
7000efd1  HwiP_undefined_handler                                                        
7000efff  HwiP_svc_handler                                                              
7000f02d  HwiP_prefetch_abort_handler                                                   
7000f05b  HwiP_data_abort_handler_c                                                     
7000f088  HwiP_irq_handler                                                              
7000f0fc  HwiP_data_abort_handler                                                       
7000f148  HwiP_disable                                                                  
7000f158  HwiP_disableFIQ                                                               
7000f168  HwiP_enable                                                                   
7000f178  HwiP_enableFIQ                                                                
7000f188  HwiP_restore                                                                  
7000f190  HwiP_enableVIC                                                                
7000f1a0  HwiP_disableVIC                                                               
7000f1b0  HwiP_getCPSR                                                                  
7000f1c0  CacheP_disableL1d                                                             
7000f1e8  CacheP_disableL1p                                                             
7000f200  CacheP_enableL1d                                                              
7000f218  CacheP_enableL1p                                                              
7000f230  CacheP_invL1d                                                                 
7000f268  CacheP_invL1p                                                                 
7000f2a4  CacheP_invL1dAll                                                              
7000f2ac  CacheP_invL1pAll                                                              
7000f2b4  CacheP_wb                                                                     
7000f2f0  CacheP_wbInv                                                                  
7000f32c  CacheP_wbAll                                                                  
7000f3d4  CacheP_wbInvAll                                                               
7000f3ec  CacheP_wbInvAllAsm                                                            
7000f48c  CacheP_getEnabled                                                             
7000f4c4  CacheP_getCacheLevelInfo                                                      
7000f4d0  CacheP_configForceWrThru                                                      
7000f4f0  CacheP_setDLFO                                                                
7000f501  CacheP_init                                                                   
7000f559  CacheP_disable                                                                
7000f593  CacheP_enable                                                                 
7000f5b3  CacheP_inv                                                                    
7000f5f1  MpuP_RegionAttrs_init                                                         
7000f5ff  MpuP_setRegion                                                                
7000f6ad  MpuP_isEnable                                                                 
7000f6b1  MpuP_disable                                                                  
7000f6e3  MpuP_enable                                                                   
7000f71f  MpuP_init                                                                     
7000f784  MpuP_disableAsm                                                               
7000f79c  MpuP_disableBRAsm                                                             
7000f7ac  MpuP_enableAsm                                                                
7000f7c4  MpuP_enableBRAsm                                                              
7000f7d4  MpuP_isEnableAsm                                                              
7000f7e8  MpuP_setRegionAsm                                                             
7000f810  _c_int00_sbl                                                                  
7000f834  _c_int00                                                                      
7000f955  _DebugP_assertNoLog                                                           
7000f973  _system_pre_init                                                              
7000f98f  __mpu_init                                                                    
7000f9a0  DDRSS_phyReg                                                                  
7000f9a0  gUartDmaHandle                                                                
7001018c  DDRSS_ctlReg                                                                  
70010828  DDRSS_phyIndepReg                                                             
70010d8c  DDRSS_phyRegNum                                                               
70011182  DDRSS_ctlRegNum                                                               
700114d0  DDRSS_phyIndepRegNum                                                          
70011784  gAddrTranslateInfo                                                            
70011848  vint_usage_count_DMASS0_INTAGGR_0                                             
70011900  gCoreBootInfo                                                                 
70011ae0  gRmIrInstances                                                                
70011b40  gUartParams                                                                   
70011b98  gBootloaderConfig                                                             
70011c24  __aeabi_errno                                                                 
70011c60  gSocModulesClockFrequency                                                     
70011c90  gRmIaInstances                                                                
70011cb0  gSciclientSecProxyCfg                                                         
70011cd0  gBootloaderMemFxns                                                            
70011ce8  gBootloaderMmcsdFxns                                                          
70011d00  gClockConfig                                                                  
70011d30  gResMemSection                                                                
70011d44  gSocModules                                                                   
70011d6c  gBootloaderConfigNum                                                          
70011d70  gAddrTranslateConfig                                                          
70011d7c  gBootloader0Args                                                              
70011d88  gBootloader1Args                                                              
70011d94  gMemBootloaderArgs                                                            
70011d9c  gMmcsdConfig                                                                  
70011da4  gMmcsdParams                                                                  
70011dbc  gUartConfig                                                                   
70011dc4  gDebugLogZone                                                                 
70011dd0  gDebugP_uartDrvIndex                                                          
70011dd4  gHwiConfig                                                                    
70011dd8  gMmcsdConfigNum                                                               
70011df0  gUartConfigNum                                                                
70011df4  gUartDmaChConfig                                                              
70011df8  operatingMode                                                                 
70011e00  gSciclientMap                                                                 
70011f68  gUdmaTxMappedChRingAttributes                                                 
700121e0  __aeabi_ctype_table_                                                          
700121e0  __aeabi_ctype_table_C                                                         
700122e4  gUdmaRxMappedChRingAttributes                                                 
70012380  tisci_if_TIMESYNC_EVENT_INTROUTER0                                            
700123e8  gCacheConfig                                                                  
700123f0  gMpuConfig                                                                    
700123fc  gMpuRegionConfig                                                              
700124b0  gRmIrqTree                                                                    
70012558  gSOC_r5fVectors                                                               
70012874  tisci_if_MAIN_GPIOMUX_INTROUTER0                                              
70012b58  tisci_if_DMASS0_INTAGGR_0                                                     
70012f98  tisci_if_MCU_MCU_GPIOMUX_INTROUTER0                                           
700130e8  tisci_if_CPTS0                                                                
70013274  tisci_if_PRU_ICSSG0                                                           
70013290  tisci_if_PRU_ICSSG1                                                           
7001347c  tisci_if_CMP_EVENT_INTROUTER0                                                 
70013568  tisci_if_PCIE0                                                                
700136ac  tisci_if_CPSW0                                                                
700137be  CMP_EVENT_INTROUTER0_outp_0_15_to_GICSS0_spi_48_63                            
700137c6  CMP_EVENT_INTROUTER0_outp_16_23_to_R5FSS0_CORE0_intr_48_55                    
700137ce  CMP_EVENT_INTROUTER0_outp_16_23_to_R5FSS0_CORE1_intr_48_55                    
700137d6  CMP_EVENT_INTROUTER0_outp_24_31_to_R5FSS1_CORE0_intr_48_55                    
700137de  CMP_EVENT_INTROUTER0_outp_24_31_to_R5FSS1_CORE1_intr_48_55                    
700137e6  CMP_EVENT_INTROUTER0_outp_32_39_to_DMASS0_INTAGGR_0_intaggr_levi_pend_0_7     
700137ee  CPSW0_cpts_comp_0_0_to_CMP_EVENT_INTROUTER0_in_80_80                          
700137f6  CPSW0_cpts_genf0_1_1_to_TIMESYNC_EVENT_INTROUTER0_in_21_21                    
700137fe  CPSW0_cpts_genf1_2_2_to_TIMESYNC_EVENT_INTROUTER0_in_22_22                    
70013806  CPSW0_cpts_sync_3_3_to_TIMESYNC_EVENT_INTROUTER0_in_34_34                     
7001380e  CPTS0_cpts_comp_0_0_to_CMP_EVENT_INTROUTER0_in_82_82                          
70013816  CPTS0_cpts_genf0_1_1_to_TIMESYNC_EVENT_INTROUTER0_in_16_16                    
7001381e  CPTS0_cpts_genf1_2_2_to_TIMESYNC_EVENT_INTROUTER0_in_17_17                    
70013826  CPTS0_cpts_genf2_3_3_to_TIMESYNC_EVENT_INTROUTER0_in_18_18                    
7001382e  CPTS0_cpts_genf3_4_4_to_TIMESYNC_EVENT_INTROUTER0_in_19_19                    
70013836  CPTS0_cpts_genf4_5_5_to_TIMESYNC_EVENT_INTROUTER0_in_20_20                    
7001383e  CPTS0_cpts_genf5_6_6_to_TIMESYNC_EVENT_INTROUTER0_in_24_24                    
70013846  CPTS0_cpts_sync_7_7_to_TIMESYNC_EVENT_INTROUTER0_in_35_35                     
7001384e  DMASS0_INTAGGR_0_intaggr_vintr_pend_0_39_to_GICSS0_spi_64_103                 
70013856  DMASS0_INTAGGR_0_intaggr_vintr_pend_120_127_to_R5FSS1_CORE0_intr_8_15         
7001385e  DMASS0_INTAGGR_0_intaggr_vintr_pend_128_135_to_R5FSS1_CORE1_intr_8_15         
70013866  DMASS0_INTAGGR_0_intaggr_vintr_pend_152_159_to_PRU_ICSSG0_pr1_slv_intr_16_23  
7001386e  DMASS0_INTAGGR_0_intaggr_vintr_pend_160_167_to_PRU_ICSSG1_pr1_slv_intr_16_23  
70013876  DMASS0_INTAGGR_0_intaggr_vintr_pend_168_183_to_MCU_M4FSS0_CORE0_nvic_32_47    
7001387e  DMASS0_INTAGGR_0_intaggr_vintr_pend_40_71_to_R5FSS0_CORE0_intr_64_95          
70013886  DMASS0_INTAGGR_0_intaggr_vintr_pend_40_71_to_R5FSS0_CORE1_intr_64_95          
7001388e  DMASS0_INTAGGR_0_intaggr_vintr_pend_72_79_to_R5FSS0_CORE0_intr_8_15           
70013896  DMASS0_INTAGGR_0_intaggr_vintr_pend_80_87_to_R5FSS0_CORE1_intr_8_15           
7001389e  DMASS0_INTAGGR_0_intaggr_vintr_pend_88_119_to_R5FSS1_CORE0_intr_64_95         
700138a6  DMASS0_INTAGGR_0_intaggr_vintr_pend_88_119_to_R5FSS1_CORE1_intr_64_95         
700138ae  EPWM0_epwm_synco_o_0_0_to_TIMESYNC_EVENT_INTROUTER0_in_39_39                  
700138b6  EPWM3_epwm_synco_o_0_0_to_TIMESYNC_EVENT_INTROUTER0_in_40_40                  
700138be  EPWM6_epwm_synco_o_0_0_to_TIMESYNC_EVENT_INTROUTER0_in_41_41                  
700138c6  GPIO0_gpio_0_89_to_MAIN_GPIOMUX_INTROUTER0_in_0_89                            
700138ce  GPIO0_gpio_bank_90_98_to_MAIN_GPIOMUX_INTROUTER0_in_190_198                   
700138d6  GPIO1_gpio_0_89_to_MAIN_GPIOMUX_INTROUTER0_in_90_179                          
700138de  GPIO1_gpio_bank_90_98_to_MAIN_GPIOMUX_INTROUTER0_in_180_188                   
700138e6  GPMC0_gpmc_sdmareq_0_0_to_DMASS0_INTAGGR_0_intaggr_levi_pend_29_29            
700138ee  GTC0_gtc_push_event_0_0_to_TIMESYNC_EVENT_INTROUTER0_in_36_36                 
700138f6  MAIN_GPIOMUX_INTROUTER0_outp_0_15_to_GICSS0_spi_32_47                         
700138fe  MAIN_GPIOMUX_INTROUTER0_outp_0_15_to_R5FSS0_CORE0_intr_32_47                  
70013906  MAIN_GPIOMUX_INTROUTER0_outp_0_15_to_R5FSS0_CORE1_intr_32_47                  
7001390e  MAIN_GPIOMUX_INTROUTER0_outp_0_15_to_R5FSS1_CORE0_intr_32_47                  
70013916  MAIN_GPIOMUX_INTROUTER0_outp_0_15_to_R5FSS1_CORE1_intr_32_47                  
7001391e  MAIN_GPIOMUX_INTROUTER0_outp_16_17_to_DMASS0_INTAGGR_0_intaggr_levi_pend_24_25
70013926  MAIN_GPIOMUX_INTROUTER0_outp_18_23_to_PRU_ICSSG0_pr1_iep0_cap_intr_req_4_9    
7001392e  MAIN_GPIOMUX_INTROUTER0_outp_18_23_to_PRU_ICSSG1_pr1_iep0_cap_intr_req_4_9    
70013936  MAIN_GPIOMUX_INTROUTER0_outp_24_29_to_PRU_ICSSG0_pr1_iep1_cap_intr_req_10_15  
7001393e  MAIN_GPIOMUX_INTROUTER0_outp_24_29_to_PRU_ICSSG1_pr1_iep1_cap_intr_req_10_15  
70013946  MAIN_GPIOMUX_INTROUTER0_outp_30_37_to_DMASS0_INTAGGR_0_intaggr_levi_pend_16_23
7001394e  MAIN_GPIOMUX_INTROUTER0_outp_38_45_to_PRU_ICSSG0_pr1_slv_intr_46_53           
70013956  MAIN_GPIOMUX_INTROUTER0_outp_46_53_to_PRU_ICSSG1_pr1_slv_intr_46_53           
7001395e  MCU_GPIO0_gpio_0_29_to_MCU_MCU_GPIOMUX_INTROUTER0_in_0_29                     
70013966  MCU_GPIO0_gpio_bank_30_31_to_MCU_MCU_GPIOMUX_INTROUTER0_in_30_31              
7001396e  MCU_MCU_GPIOMUX_INTROUTER0_outp_0_3_to_GICSS0_spi_104_107                     
70013976  MCU_MCU_GPIOMUX_INTROUTER0_outp_0_3_to_R5FSS0_CORE0_intr_104_107              
7001397e  MCU_MCU_GPIOMUX_INTROUTER0_outp_0_3_to_R5FSS0_CORE1_intr_104_107              
70013986  MCU_MCU_GPIOMUX_INTROUTER0_outp_0_3_to_R5FSS1_CORE0_intr_104_107              
7001398e  MCU_MCU_GPIOMUX_INTROUTER0_outp_0_3_to_R5FSS1_CORE1_intr_104_107              
70013996  MCU_MCU_GPIOMUX_INTROUTER0_outp_4_7_to_MCU_M4FSS0_CORE0_nvic_0_3              
7001399e  MCU_MCU_GPIOMUX_INTROUTER0_outp_8_11_to_MCU_ESM0_esm_pls_event0_88_91         
700139a6  MCU_MCU_GPIOMUX_INTROUTER0_outp_8_11_to_MCU_ESM0_esm_pls_event1_92_95         
700139ae  MCU_MCU_GPIOMUX_INTROUTER0_outp_8_11_to_MCU_ESM0_esm_pls_event2_96_99         
700139b6  PCIE0_pcie_cpts_comp_0_0_to_CMP_EVENT_INTROUTER0_in_81_81                     
700139be  PCIE0_pcie_cpts_genf0_1_1_to_TIMESYNC_EVENT_INTROUTER0_in_23_23               
700139c6  PCIE0_pcie_cpts_hw1_push_2_2_to_TIMESYNC_EVENT_INTROUTER0_in_37_37            
700139ce  PCIE0_pcie_cpts_sync_3_3_to_TIMESYNC_EVENT_INTROUTER0_in_33_33                
700139d6  PCIE0_pcie_ptm_valid_pulse_4_4_to_TIMESYNC_EVENT_INTROUTER0_in_38_38          
700139de  PRU_ICSSG0_pr1_edc0_sync0_out_0_0_to_TIMESYNC_EVENT_INTROUTER0_in_25_25       
700139e6  PRU_ICSSG0_pr1_edc0_sync1_out_1_1_to_TIMESYNC_EVENT_INTROUTER0_in_26_26       
700139ee  PRU_ICSSG0_pr1_edc1_sync0_out_2_2_to_TIMESYNC_EVENT_INTROUTER0_in_27_27       
700139f6  PRU_ICSSG0_pr1_edc1_sync1_out_3_3_to_TIMESYNC_EVENT_INTROUTER0_in_28_28       
700139fe  PRU_ICSSG0_pr1_host_intr_req_4_11_to_CMP_EVENT_INTROUTER0_in_0_7              
70013a06  PRU_ICSSG0_pr1_iep0_cmp_intr_req_12_27_to_CMP_EVENT_INTROUTER0_in_16_31       
70013a0e  PRU_ICSSG0_pr1_iep1_cmp_intr_req_28_43_to_CMP_EVENT_INTROUTER0_in_32_47       
70013a16  PRU_ICSSG1_pr1_edc0_sync0_out_0_0_to_TIMESYNC_EVENT_INTROUTER0_in_29_29       
70013a1e  PRU_ICSSG1_pr1_edc0_sync1_out_1_1_to_TIMESYNC_EVENT_INTROUTER0_in_30_30       
70013a26  PRU_ICSSG1_pr1_edc1_sync0_out_2_2_to_TIMESYNC_EVENT_INTROUTER0_in_31_31       
70013a2e  PRU_ICSSG1_pr1_edc1_sync1_out_3_3_to_TIMESYNC_EVENT_INTROUTER0_in_32_32       
70013a36  PRU_ICSSG1_pr1_host_intr_req_4_11_to_CMP_EVENT_INTROUTER0_in_8_15             
70013a3e  PRU_ICSSG1_pr1_iep0_cmp_intr_req_12_27_to_CMP_EVENT_INTROUTER0_in_48_63       
70013a46  PRU_ICSSG1_pr1_iep1_cmp_intr_req_28_43_to_CMP_EVENT_INTROUTER0_in_64_79       
70013a4e  TIMER0_timer_pwm_0_0_to_TIMESYNC_EVENT_INTROUTER0_in_0_0                      
70013a56  TIMER1_timer_pwm_0_0_to_TIMESYNC_EVENT_INTROUTER0_in_1_1                      
70013a5e  TIMER2_timer_pwm_0_0_to_TIMESYNC_EVENT_INTROUTER0_in_2_2                      
70013a66  TIMER3_timer_pwm_0_0_to_TIMESYNC_EVENT_INTROUTER0_in_3_3                      
70013a6e  TIMESYNC_EVENT_INTROUTER0_outl_0_7_to_DMASS0_INTAGGR_0_intaggr_levi_pend_8_15 
70013a76  TIMESYNC_EVENT_INTROUTER0_outl_10_10_to_PRU_ICSSG0_pr1_edc1_latch0_in_2_2     
70013a7e  TIMESYNC_EVENT_INTROUTER0_outl_11_11_to_PRU_ICSSG0_pr1_edc1_latch1_in_3_3     
70013a86  TIMESYNC_EVENT_INTROUTER0_outl_12_12_to_PRU_ICSSG1_pr1_edc0_latch0_in_0_0     
70013a8e  TIMESYNC_EVENT_INTROUTER0_outl_13_13_to_PRU_ICSSG1_pr1_edc0_latch1_in_1_1     
70013a96  TIMESYNC_EVENT_INTROUTER0_outl_14_14_to_PRU_ICSSG1_pr1_edc1_latch0_in_2_2     
70013a9e  TIMESYNC_EVENT_INTROUTER0_outl_15_15_to_PRU_ICSSG1_pr1_edc1_latch1_in_3_3     
70013aa6  TIMESYNC_EVENT_INTROUTER0_outl_16_16_to_CPTS0_cpts_hw1_push_0_0               
70013aae  TIMESYNC_EVENT_INTROUTER0_outl_17_17_to_CPTS0_cpts_hw2_push_1_1               
70013ab6  TIMESYNC_EVENT_INTROUTER0_outl_18_18_to_CPTS0_cpts_hw3_push_2_2               
70013abe  TIMESYNC_EVENT_INTROUTER0_outl_19_19_to_CPTS0_cpts_hw4_push_3_3               
70013ac6  TIMESYNC_EVENT_INTROUTER0_outl_20_20_to_CPTS0_cpts_hw5_push_4_4               
70013ace  TIMESYNC_EVENT_INTROUTER0_outl_21_21_to_CPTS0_cpts_hw6_push_5_5               
70013ad6  TIMESYNC_EVENT_INTROUTER0_outl_22_22_to_CPTS0_cpts_hw7_push_6_6               
70013ade  TIMESYNC_EVENT_INTROUTER0_outl_23_23_to_CPTS0_cpts_hw8_push_7_7               
70013ae6  TIMESYNC_EVENT_INTROUTER0_outl_29_29_to_PCIE0_pcie_cpts_hw2_push_0_0          
70013aee  TIMESYNC_EVENT_INTROUTER0_outl_30_30_to_CPSW0_cpts_hw1_push_0_0               
70013af6  TIMESYNC_EVENT_INTROUTER0_outl_31_31_to_CPSW0_cpts_hw2_push_1_1               
70013afe  TIMESYNC_EVENT_INTROUTER0_outl_32_32_to_CPSW0_cpts_hw3_push_2_2               
70013b06  TIMESYNC_EVENT_INTROUTER0_outl_33_33_to_CPSW0_cpts_hw4_push_3_3               
70013b0e  TIMESYNC_EVENT_INTROUTER0_outl_34_34_to_CPSW0_cpts_hw5_push_4_4               
70013b16  TIMESYNC_EVENT_INTROUTER0_outl_35_35_to_CPSW0_cpts_hw6_push_5_5               
70013b1e  TIMESYNC_EVENT_INTROUTER0_outl_36_36_to_CPSW0_cpts_hw7_push_6_6               
70013b26  TIMESYNC_EVENT_INTROUTER0_outl_37_37_to_CPSW0_cpts_hw8_push_7_7               
70013b2e  TIMESYNC_EVENT_INTROUTER0_outl_8_8_to_PRU_ICSSG0_pr1_edc0_latch0_in_0_0       
70013b36  TIMESYNC_EVENT_INTROUTER0_outl_9_9_to_PRU_ICSSG0_pr1_edc0_latch1_in_1_1       
70013b58  tisci_if_GPIO0                                                                
70013b60  tisci_if_GPIO1                                                                
70013b68  tisci_if_MCU_GPIO0                                                            
70013c78  gCacheL1dCacheLineSize                                                        
70013c7c  gCacheL1pCacheLineSize                                                        
70013c80  gRmIrqTreeCount                                                               
70013cbc  tisci_if_EPWM0                                                                
70013cc0  tisci_if_EPWM3                                                                
70013cc4  tisci_if_EPWM6                                                                
70013cc8  tisci_if_GPMC0                                                                
70013ccc  tisci_if_GTC0                                                                 
70013cd0  tisci_if_TIMER0                                                               
70013cd4  tisci_if_TIMER1                                                               
70013cd8  tisci_if_TIMER2                                                               
70013cdc  tisci_if_TIMER3                                                               
70070000  __start___llvm_prf_bits                                                       
70070000  __start___llvm_prf_cnts                                                       
70070000  __stop___llvm_prf_bits                                                        
70070000  __stop___llvm_prf_cnts                                                        
70070000  _sys_memory                                                                   
70078000  __stack                                                                       
7007c000  __BSS_START                                                                   
7007c000  __STACK_END                                                                   
7007c000  gHwiCtrl                                                                      
7007d730  gClockCtrl                                                                    
7007d780  gMmcsdDataBuf0                                                                
7007d980  gProfileObj                                                                   
7007da9c  gMmcsdHandle                                                                  
7007dac8  gEmmcData0                                                                    
7007db00  gADMA2Desc                                                                    
7007db0c  gUartHandle                                                                   
7007db80  __BSS_END                                                                     
7007db80  __IRQ_STACK_START                                                             
7007eb80  __FIQ_STACK_START                                                             
7007eb80  __IRQ_STACK_END                                                               
7007ec80  __FIQ_STACK_END                                                               
7007ec80  __SVC_STACK_START                                                             
7007ed80  __ABORT_STACK_START                                                           
7007ed80  __SVC_STACK_END                                                               
7007ee80  __ABORT_STACK_END                                                             
7007ee80  __UNDEFINED_STACK_START                                                       
7007ef80  __UNDEFINED_STACK_END                                                         
82000000  gAppimage                                                                     
ffffffff  __TI_pprof_out_hndl                                                           
ffffffff  __TI_prof_data_size                                                           
ffffffff  __TI_prof_data_start                                                          
ffffffff  __binit__                                                                     
ffffffff  binit                                                                         
UNDEFED   __TI_CINIT_Base                                                               
UNDEFED   __TI_CINIT_Limit                                                              
UNDEFED   __TI_Handler_Table_Base                                                       
UNDEFED   __TI_Handler_Table_Limit                                                      
UNDEFED   _system_post_cinit                                                            

[656 symbols]
